
On-demand_Traffic_light_control.elf:     file format elf32-avr

Sections:
Idx Name          Size      VMA       LMA       File off  Algn
  0 .text         00001450  00000000  00000000  00000094  2**1
                  CONTENTS, ALLOC, LOAD, READONLY, CODE
  1 .data         0000004c  00800060  00001450  000014e4  2**0
                  CONTENTS, ALLOC, LOAD, DATA
  2 .bss          0000000e  008000ac  008000ac  00001530  2**0
                  ALLOC
  3 .stab         00003108  00000000  00000000  00001530  2**2
                  CONTENTS, READONLY, DEBUGGING
  4 .stabstr      000025ce  00000000  00000000  00004638  2**0
                  CONTENTS, READONLY, DEBUGGING

Disassembly of section .text:

00000000 <__vectors>:
       0:	0c 94 2a 00 	jmp	0x54	; 0x54 <__ctors_end>
       4:	0c 94 f0 03 	jmp	0x7e0	; 0x7e0 <__vector_1>
       8:	0c 94 23 04 	jmp	0x846	; 0x846 <__vector_2>
       c:	0c 94 56 04 	jmp	0x8ac	; 0x8ac <__vector_3>
      10:	0c 94 47 00 	jmp	0x8e	; 0x8e <__bad_interrupt>
      14:	0c 94 47 00 	jmp	0x8e	; 0x8e <__bad_interrupt>
      18:	0c 94 47 00 	jmp	0x8e	; 0x8e <__bad_interrupt>
      1c:	0c 94 47 00 	jmp	0x8e	; 0x8e <__bad_interrupt>
      20:	0c 94 47 00 	jmp	0x8e	; 0x8e <__bad_interrupt>
      24:	0c 94 47 00 	jmp	0x8e	; 0x8e <__bad_interrupt>
      28:	0c 94 ea 01 	jmp	0x3d4	; 0x3d4 <__vector_10>
      2c:	0c 94 b7 01 	jmp	0x36e	; 0x36e <__vector_11>
      30:	0c 94 47 00 	jmp	0x8e	; 0x8e <__bad_interrupt>
      34:	0c 94 47 00 	jmp	0x8e	; 0x8e <__bad_interrupt>
      38:	0c 94 47 00 	jmp	0x8e	; 0x8e <__bad_interrupt>
      3c:	0c 94 47 00 	jmp	0x8e	; 0x8e <__bad_interrupt>
      40:	0c 94 47 00 	jmp	0x8e	; 0x8e <__bad_interrupt>
      44:	0c 94 47 00 	jmp	0x8e	; 0x8e <__bad_interrupt>
      48:	0c 94 47 00 	jmp	0x8e	; 0x8e <__bad_interrupt>
      4c:	0c 94 47 00 	jmp	0x8e	; 0x8e <__bad_interrupt>
      50:	0c 94 47 00 	jmp	0x8e	; 0x8e <__bad_interrupt>

00000054 <__ctors_end>:
      54:	11 24       	eor	r1, r1
      56:	1f be       	out	0x3f, r1	; 63
      58:	cf e5       	ldi	r28, 0x5F	; 95
      5a:	d8 e0       	ldi	r29, 0x08	; 8
      5c:	de bf       	out	0x3e, r29	; 62
      5e:	cd bf       	out	0x3d, r28	; 61

00000060 <__do_copy_data>:
      60:	10 e0       	ldi	r17, 0x00	; 0
      62:	a0 e6       	ldi	r26, 0x60	; 96
      64:	b0 e0       	ldi	r27, 0x00	; 0
      66:	e0 e5       	ldi	r30, 0x50	; 80
      68:	f4 e1       	ldi	r31, 0x14	; 20
      6a:	02 c0       	rjmp	.+4      	; 0x70 <.do_copy_data_start>

0000006c <.do_copy_data_loop>:
      6c:	05 90       	lpm	r0, Z+
      6e:	0d 92       	st	X+, r0

00000070 <.do_copy_data_start>:
      70:	ac 3a       	cpi	r26, 0xAC	; 172
      72:	b1 07       	cpc	r27, r17
      74:	d9 f7       	brne	.-10     	; 0x6c <.do_copy_data_loop>

00000076 <__do_clear_bss>:
      76:	10 e0       	ldi	r17, 0x00	; 0
      78:	ac ea       	ldi	r26, 0xAC	; 172
      7a:	b0 e0       	ldi	r27, 0x00	; 0
      7c:	01 c0       	rjmp	.+2      	; 0x80 <.do_clear_bss_start>

0000007e <.do_clear_bss_loop>:
      7e:	1d 92       	st	X+, r1

00000080 <.do_clear_bss_start>:
      80:	aa 3b       	cpi	r26, 0xBA	; 186
      82:	b1 07       	cpc	r27, r17
      84:	e1 f7       	brne	.-8      	; 0x7e <.do_clear_bss_loop>
      86:	0e 94 0b 0a 	call	0x1416	; 0x1416 <main>
      8a:	0c 94 26 0a 	jmp	0x144c	; 0x144c <_exit>

0000008e <__bad_interrupt>:
      8e:	0c 94 00 00 	jmp	0	; 0x0 <__vectors>

00000092 <TMR0_init>:
      92:	df 93       	push	r29
      94:	cf 93       	push	r28
      96:	00 d0       	rcall	.+0      	; 0x98 <TMR0_init+0x6>
      98:	00 d0       	rcall	.+0      	; 0x9a <TMR0_init+0x8>
      9a:	0f 92       	push	r0
      9c:	cd b7       	in	r28, 0x3d	; 61
      9e:	de b7       	in	r29, 0x3e	; 62
      a0:	9b 83       	std	Y+3, r25	; 0x03
      a2:	8a 83       	std	Y+2, r24	; 0x02
      a4:	81 e0       	ldi	r24, 0x01	; 1
      a6:	89 83       	std	Y+1, r24	; 0x01
      a8:	8a 81       	ldd	r24, Y+2	; 0x02
      aa:	9b 81       	ldd	r25, Y+3	; 0x03
      ac:	00 97       	sbiw	r24, 0x00	; 0
      ae:	11 f4       	brne	.+4      	; 0xb4 <TMR0_init+0x22>
      b0:	19 82       	std	Y+1, r1	; 0x01
      b2:	95 c0       	rjmp	.+298    	; 0x1de <TMR0_init+0x14c>
      b4:	ea 81       	ldd	r30, Y+2	; 0x02
      b6:	fb 81       	ldd	r31, Y+3	; 0x03
      b8:	81 81       	ldd	r24, Z+1	; 0x01
      ba:	28 2f       	mov	r18, r24
      bc:	30 e0       	ldi	r19, 0x00	; 0
      be:	3d 83       	std	Y+5, r19	; 0x05
      c0:	2c 83       	std	Y+4, r18	; 0x04
      c2:	8c 81       	ldd	r24, Y+4	; 0x04
      c4:	9d 81       	ldd	r25, Y+5	; 0x05
      c6:	81 30       	cpi	r24, 0x01	; 1
      c8:	91 05       	cpc	r25, r1
      ca:	21 f1       	breq	.+72     	; 0x114 <TMR0_init+0x82>
      cc:	2c 81       	ldd	r18, Y+4	; 0x04
      ce:	3d 81       	ldd	r19, Y+5	; 0x05
      d0:	22 30       	cpi	r18, 0x02	; 2
      d2:	31 05       	cpc	r19, r1
      d4:	2c f4       	brge	.+10     	; 0xe0 <TMR0_init+0x4e>
      d6:	8c 81       	ldd	r24, Y+4	; 0x04
      d8:	9d 81       	ldd	r25, Y+5	; 0x05
      da:	00 97       	sbiw	r24, 0x00	; 0
      dc:	61 f0       	breq	.+24     	; 0xf6 <TMR0_init+0x64>
      de:	46 c0       	rjmp	.+140    	; 0x16c <TMR0_init+0xda>
      e0:	2c 81       	ldd	r18, Y+4	; 0x04
      e2:	3d 81       	ldd	r19, Y+5	; 0x05
      e4:	22 30       	cpi	r18, 0x02	; 2
      e6:	31 05       	cpc	r19, r1
      e8:	21 f1       	breq	.+72     	; 0x132 <TMR0_init+0xa0>
      ea:	8c 81       	ldd	r24, Y+4	; 0x04
      ec:	9d 81       	ldd	r25, Y+5	; 0x05
      ee:	83 30       	cpi	r24, 0x03	; 3
      f0:	91 05       	cpc	r25, r1
      f2:	71 f1       	breq	.+92     	; 0x150 <TMR0_init+0xbe>
      f4:	3b c0       	rjmp	.+118    	; 0x16c <TMR0_init+0xda>
      f6:	a3 e5       	ldi	r26, 0x53	; 83
      f8:	b0 e0       	ldi	r27, 0x00	; 0
      fa:	e3 e5       	ldi	r30, 0x53	; 83
      fc:	f0 e0       	ldi	r31, 0x00	; 0
      fe:	80 81       	ld	r24, Z
     100:	8f 7b       	andi	r24, 0xBF	; 191
     102:	8c 93       	st	X, r24
     104:	a3 e5       	ldi	r26, 0x53	; 83
     106:	b0 e0       	ldi	r27, 0x00	; 0
     108:	e3 e5       	ldi	r30, 0x53	; 83
     10a:	f0 e0       	ldi	r31, 0x00	; 0
     10c:	80 81       	ld	r24, Z
     10e:	87 7f       	andi	r24, 0xF7	; 247
     110:	8c 93       	st	X, r24
     112:	2c c0       	rjmp	.+88     	; 0x16c <TMR0_init+0xda>
     114:	a3 e5       	ldi	r26, 0x53	; 83
     116:	b0 e0       	ldi	r27, 0x00	; 0
     118:	e3 e5       	ldi	r30, 0x53	; 83
     11a:	f0 e0       	ldi	r31, 0x00	; 0
     11c:	80 81       	ld	r24, Z
     11e:	80 64       	ori	r24, 0x40	; 64
     120:	8c 93       	st	X, r24
     122:	a3 e5       	ldi	r26, 0x53	; 83
     124:	b0 e0       	ldi	r27, 0x00	; 0
     126:	e3 e5       	ldi	r30, 0x53	; 83
     128:	f0 e0       	ldi	r31, 0x00	; 0
     12a:	80 81       	ld	r24, Z
     12c:	87 7f       	andi	r24, 0xF7	; 247
     12e:	8c 93       	st	X, r24
     130:	1d c0       	rjmp	.+58     	; 0x16c <TMR0_init+0xda>
     132:	a3 e5       	ldi	r26, 0x53	; 83
     134:	b0 e0       	ldi	r27, 0x00	; 0
     136:	e3 e5       	ldi	r30, 0x53	; 83
     138:	f0 e0       	ldi	r31, 0x00	; 0
     13a:	80 81       	ld	r24, Z
     13c:	8f 7b       	andi	r24, 0xBF	; 191
     13e:	8c 93       	st	X, r24
     140:	a3 e5       	ldi	r26, 0x53	; 83
     142:	b0 e0       	ldi	r27, 0x00	; 0
     144:	e3 e5       	ldi	r30, 0x53	; 83
     146:	f0 e0       	ldi	r31, 0x00	; 0
     148:	80 81       	ld	r24, Z
     14a:	88 60       	ori	r24, 0x08	; 8
     14c:	8c 93       	st	X, r24
     14e:	0e c0       	rjmp	.+28     	; 0x16c <TMR0_init+0xda>
     150:	a3 e5       	ldi	r26, 0x53	; 83
     152:	b0 e0       	ldi	r27, 0x00	; 0
     154:	e3 e5       	ldi	r30, 0x53	; 83
     156:	f0 e0       	ldi	r31, 0x00	; 0
     158:	80 81       	ld	r24, Z
     15a:	80 64       	ori	r24, 0x40	; 64
     15c:	8c 93       	st	X, r24
     15e:	a3 e5       	ldi	r26, 0x53	; 83
     160:	b0 e0       	ldi	r27, 0x00	; 0
     162:	e3 e5       	ldi	r30, 0x53	; 83
     164:	f0 e0       	ldi	r31, 0x00	; 0
     166:	80 81       	ld	r24, Z
     168:	88 60       	ori	r24, 0x08	; 8
     16a:	8c 93       	st	X, r24
     16c:	ea 81       	ldd	r30, Y+2	; 0x02
     16e:	fb 81       	ldd	r31, Y+3	; 0x03
     170:	83 81       	ldd	r24, Z+3	; 0x03
     172:	94 81       	ldd	r25, Z+4	; 0x04
     174:	90 93 ad 00 	sts	0x00AD, r25
     178:	80 93 ac 00 	sts	0x00AC, r24
     17c:	ea 81       	ldd	r30, Y+2	; 0x02
     17e:	fb 81       	ldd	r31, Y+3	; 0x03
     180:	85 81       	ldd	r24, Z+5	; 0x05
     182:	96 81       	ldd	r25, Z+6	; 0x06
     184:	90 93 af 00 	sts	0x00AF, r25
     188:	80 93 ae 00 	sts	0x00AE, r24
     18c:	a3 e5       	ldi	r26, 0x53	; 83
     18e:	b0 e0       	ldi	r27, 0x00	; 0
     190:	e3 e5       	ldi	r30, 0x53	; 83
     192:	f0 e0       	ldi	r31, 0x00	; 0
     194:	90 81       	ld	r25, Z
     196:	ea 81       	ldd	r30, Y+2	; 0x02
     198:	fb 81       	ldd	r31, Y+3	; 0x03
     19a:	80 81       	ld	r24, Z
     19c:	89 2b       	or	r24, r25
     19e:	8c 93       	st	X, r24
     1a0:	a3 e5       	ldi	r26, 0x53	; 83
     1a2:	b0 e0       	ldi	r27, 0x00	; 0
     1a4:	e3 e5       	ldi	r30, 0x53	; 83
     1a6:	f0 e0       	ldi	r31, 0x00	; 0
     1a8:	80 81       	ld	r24, Z
     1aa:	28 2f       	mov	r18, r24
     1ac:	ea 81       	ldd	r30, Y+2	; 0x02
     1ae:	fb 81       	ldd	r31, Y+3	; 0x03
     1b0:	82 81       	ldd	r24, Z+2	; 0x02
     1b2:	88 2f       	mov	r24, r24
     1b4:	90 e0       	ldi	r25, 0x00	; 0
     1b6:	82 95       	swap	r24
     1b8:	92 95       	swap	r25
     1ba:	90 7f       	andi	r25, 0xF0	; 240
     1bc:	98 27       	eor	r25, r24
     1be:	80 7f       	andi	r24, 0xF0	; 240
     1c0:	98 27       	eor	r25, r24
     1c2:	82 2b       	or	r24, r18
     1c4:	8c 93       	st	X, r24
     1c6:	ea 81       	ldd	r30, Y+2	; 0x02
     1c8:	fb 81       	ldd	r31, Y+3	; 0x03
     1ca:	82 81       	ldd	r24, Z+2	; 0x02
     1cc:	88 23       	and	r24, r24
     1ce:	39 f0       	breq	.+14     	; 0x1de <TMR0_init+0x14c>
     1d0:	a7 e3       	ldi	r26, 0x37	; 55
     1d2:	b0 e0       	ldi	r27, 0x00	; 0
     1d4:	e7 e3       	ldi	r30, 0x37	; 55
     1d6:	f0 e0       	ldi	r31, 0x00	; 0
     1d8:	80 81       	ld	r24, Z
     1da:	88 60       	ori	r24, 0x08	; 8
     1dc:	8c 93       	st	X, r24
     1de:	89 81       	ldd	r24, Y+1	; 0x01
     1e0:	0f 90       	pop	r0
     1e2:	0f 90       	pop	r0
     1e4:	0f 90       	pop	r0
     1e6:	0f 90       	pop	r0
     1e8:	0f 90       	pop	r0
     1ea:	cf 91       	pop	r28
     1ec:	df 91       	pop	r29
     1ee:	08 95       	ret

000001f0 <TMR0_Write_Value>:
 * @return Status of the function
 *          (E_OK) : The function done successfully
 *          (E_NOT_OK) : The function has issue to perform this action
 */
Std_ReturnType TMR0_Write_Value(uint8_t timer_0)
{
     1f0:	df 93       	push	r29
     1f2:	cf 93       	push	r28
     1f4:	00 d0       	rcall	.+0      	; 0x1f6 <TMR0_Write_Value+0x6>
     1f6:	cd b7       	in	r28, 0x3d	; 61
     1f8:	de b7       	in	r29, 0x3e	; 62
     1fa:	8a 83       	std	Y+2, r24	; 0x02
	Std_ReturnType ret = E_OK;
     1fc:	81 e0       	ldi	r24, 0x01	; 1
     1fe:	89 83       	std	Y+1, r24	; 0x01
	{
		ret = E_NOT_OK;
	}
	else
	{
		TCNT0 =  timer_0;
     200:	e2 e5       	ldi	r30, 0x52	; 82
     202:	f0 e0       	ldi	r31, 0x00	; 0
     204:	8a 81       	ldd	r24, Y+2	; 0x02
     206:	80 83       	st	Z, r24
	}
	return ret;
     208:	89 81       	ldd	r24, Y+1	; 0x01
}
     20a:	0f 90       	pop	r0
     20c:	0f 90       	pop	r0
     20e:	cf 91       	pop	r28
     210:	df 91       	pop	r29
     212:	08 95       	ret

00000214 <TMR0_Read_Value>:
 * @return Status of the function
 *          (E_OK) : The function done successfully
 *          (E_NOT_OK) : The function has issue to perform this action
 */
Std_ReturnType TMR0_Read_Value(uint8_t* timer_0)
{
     214:	df 93       	push	r29
     216:	cf 93       	push	r28
     218:	00 d0       	rcall	.+0      	; 0x21a <TMR0_Read_Value+0x6>
     21a:	0f 92       	push	r0
     21c:	cd b7       	in	r28, 0x3d	; 61
     21e:	de b7       	in	r29, 0x3e	; 62
     220:	9b 83       	std	Y+3, r25	; 0x03
     222:	8a 83       	std	Y+2, r24	; 0x02
	Std_ReturnType ret = E_OK;
     224:	81 e0       	ldi	r24, 0x01	; 1
     226:	89 83       	std	Y+1, r24	; 0x01
	if(timer_0 == NULL)
     228:	8a 81       	ldd	r24, Y+2	; 0x02
     22a:	9b 81       	ldd	r25, Y+3	; 0x03
     22c:	00 97       	sbiw	r24, 0x00	; 0
     22e:	11 f4       	brne	.+4      	; 0x234 <TMR0_Read_Value+0x20>
	{
		ret = E_NOT_OK;
     230:	19 82       	std	Y+1, r1	; 0x01
     232:	06 c0       	rjmp	.+12     	; 0x240 <TMR0_Read_Value+0x2c>
	}
	else
	{
		*timer_0 = TCNT0;
     234:	e2 e5       	ldi	r30, 0x52	; 82
     236:	f0 e0       	ldi	r31, 0x00	; 0
     238:	80 81       	ld	r24, Z
     23a:	ea 81       	ldd	r30, Y+2	; 0x02
     23c:	fb 81       	ldd	r31, Y+3	; 0x03
     23e:	80 83       	st	Z, r24
	}
	return ret;
     240:	89 81       	ldd	r24, Y+1	; 0x01
}
     242:	0f 90       	pop	r0
     244:	0f 90       	pop	r0
     246:	0f 90       	pop	r0
     248:	cf 91       	pop	r28
     24a:	df 91       	pop	r29
     24c:	08 95       	ret

0000024e <TMR0_OverFlow_Iterrupt_Enable>:
 * @return Status of the function
 *          (E_OK) : The function done successfully
 *          (E_NOT_OK) : The function has issue to perform this action
 */
Std_ReturnType TMR0_OverFlow_Iterrupt_Enable(const ST_timer0_t* timer_0)
{
     24e:	df 93       	push	r29
     250:	cf 93       	push	r28
     252:	00 d0       	rcall	.+0      	; 0x254 <TMR0_OverFlow_Iterrupt_Enable+0x6>
     254:	0f 92       	push	r0
     256:	cd b7       	in	r28, 0x3d	; 61
     258:	de b7       	in	r29, 0x3e	; 62
     25a:	9b 83       	std	Y+3, r25	; 0x03
     25c:	8a 83       	std	Y+2, r24	; 0x02
	Std_ReturnType ret = E_OK;
     25e:	81 e0       	ldi	r24, 0x01	; 1
     260:	89 83       	std	Y+1, r24	; 0x01
	if(timer_0 == NULL)
     262:	8a 81       	ldd	r24, Y+2	; 0x02
     264:	9b 81       	ldd	r25, Y+3	; 0x03
     266:	00 97       	sbiw	r24, 0x00	; 0
     268:	11 f4       	brne	.+4      	; 0x26e <TMR0_OverFlow_Iterrupt_Enable+0x20>
	{
		ret = E_NOT_OK;
     26a:	19 82       	std	Y+1, r1	; 0x01
     26c:	0f c0       	rjmp	.+30     	; 0x28c <TMR0_OverFlow_Iterrupt_Enable+0x3e>
	}
	else
	{
		tmr0_overFlow_interruptHandler = timer_0->TIMER0_OV_interruptHandler;
     26e:	ea 81       	ldd	r30, Y+2	; 0x02
     270:	fb 81       	ldd	r31, Y+3	; 0x03
     272:	83 81       	ldd	r24, Z+3	; 0x03
     274:	94 81       	ldd	r25, Z+4	; 0x04
     276:	90 93 ad 00 	sts	0x00AD, r25
     27a:	80 93 ac 00 	sts	0x00AC, r24
		TIMER0_OVERFLOW_INTERRUPT_ENABLE();
     27e:	a9 e5       	ldi	r26, 0x59	; 89
     280:	b0 e0       	ldi	r27, 0x00	; 0
     282:	e9 e5       	ldi	r30, 0x59	; 89
     284:	f0 e0       	ldi	r31, 0x00	; 0
     286:	80 81       	ld	r24, Z
     288:	81 60       	ori	r24, 0x01	; 1
     28a:	8c 93       	st	X, r24
	}
	return ret;
     28c:	89 81       	ldd	r24, Y+1	; 0x01
}
     28e:	0f 90       	pop	r0
     290:	0f 90       	pop	r0
     292:	0f 90       	pop	r0
     294:	cf 91       	pop	r28
     296:	df 91       	pop	r29
     298:	08 95       	ret

0000029a <TMR0_OverFlow_Iterrupt_Disable>:
 * @return Status of the function
 *          (E_OK) : The function done successfully
 *          (E_NOT_OK) : The function has issue to perform this action
 */
Std_ReturnType TMR0_OverFlow_Iterrupt_Disable(const ST_timer0_t* timer_0)
{
     29a:	df 93       	push	r29
     29c:	cf 93       	push	r28
     29e:	00 d0       	rcall	.+0      	; 0x2a0 <TMR0_OverFlow_Iterrupt_Disable+0x6>
     2a0:	0f 92       	push	r0
     2a2:	cd b7       	in	r28, 0x3d	; 61
     2a4:	de b7       	in	r29, 0x3e	; 62
     2a6:	9b 83       	std	Y+3, r25	; 0x03
     2a8:	8a 83       	std	Y+2, r24	; 0x02
	Std_ReturnType ret = E_OK;
     2aa:	81 e0       	ldi	r24, 0x01	; 1
     2ac:	89 83       	std	Y+1, r24	; 0x01
	if(timer_0 == NULL)
     2ae:	8a 81       	ldd	r24, Y+2	; 0x02
     2b0:	9b 81       	ldd	r25, Y+3	; 0x03
     2b2:	00 97       	sbiw	r24, 0x00	; 0
     2b4:	11 f4       	brne	.+4      	; 0x2ba <TMR0_OverFlow_Iterrupt_Disable+0x20>
	{
		ret = E_NOT_OK;
     2b6:	19 82       	std	Y+1, r1	; 0x01
     2b8:	0b c0       	rjmp	.+22     	; 0x2d0 <TMR0_OverFlow_Iterrupt_Disable+0x36>
	}
	else
	{
		tmr0_overFlow_interruptHandler = NULL;
     2ba:	10 92 ad 00 	sts	0x00AD, r1
     2be:	10 92 ac 00 	sts	0x00AC, r1
		TIMER0_OVERFLOW_INTERRUPT_DISABLE();
     2c2:	a9 e5       	ldi	r26, 0x59	; 89
     2c4:	b0 e0       	ldi	r27, 0x00	; 0
     2c6:	e9 e5       	ldi	r30, 0x59	; 89
     2c8:	f0 e0       	ldi	r31, 0x00	; 0
     2ca:	80 81       	ld	r24, Z
     2cc:	8e 7f       	andi	r24, 0xFE	; 254
     2ce:	8c 93       	st	X, r24
	}
	return ret;
     2d0:	89 81       	ldd	r24, Y+1	; 0x01
}
     2d2:	0f 90       	pop	r0
     2d4:	0f 90       	pop	r0
     2d6:	0f 90       	pop	r0
     2d8:	cf 91       	pop	r28
     2da:	df 91       	pop	r29
     2dc:	08 95       	ret

000002de <TMR0_OC_Iterrupt_Enable>:
 * @return Status of the function
 *          (E_OK) : The function done successfully
 *          (E_NOT_OK) : The function has issue to perform this action
 */
Std_ReturnType TMR0_OC_Iterrupt_Enable(const ST_timer0_t* timer_0)
{
     2de:	df 93       	push	r29
     2e0:	cf 93       	push	r28
     2e2:	00 d0       	rcall	.+0      	; 0x2e4 <TMR0_OC_Iterrupt_Enable+0x6>
     2e4:	0f 92       	push	r0
     2e6:	cd b7       	in	r28, 0x3d	; 61
     2e8:	de b7       	in	r29, 0x3e	; 62
     2ea:	9b 83       	std	Y+3, r25	; 0x03
     2ec:	8a 83       	std	Y+2, r24	; 0x02
	Std_ReturnType ret = E_OK;
     2ee:	81 e0       	ldi	r24, 0x01	; 1
     2f0:	89 83       	std	Y+1, r24	; 0x01
	if(timer_0 == NULL)
     2f2:	8a 81       	ldd	r24, Y+2	; 0x02
     2f4:	9b 81       	ldd	r25, Y+3	; 0x03
     2f6:	00 97       	sbiw	r24, 0x00	; 0
     2f8:	11 f4       	brne	.+4      	; 0x2fe <TMR0_OC_Iterrupt_Enable+0x20>
	{
		ret = E_NOT_OK;
     2fa:	19 82       	std	Y+1, r1	; 0x01
     2fc:	0f c0       	rjmp	.+30     	; 0x31c <TMR0_OC_Iterrupt_Enable+0x3e>
	}
	else
	{
		tmr0_OC_interruptHandler = timer_0->TIMER0_OC_interruptHandler;
     2fe:	ea 81       	ldd	r30, Y+2	; 0x02
     300:	fb 81       	ldd	r31, Y+3	; 0x03
     302:	85 81       	ldd	r24, Z+5	; 0x05
     304:	96 81       	ldd	r25, Z+6	; 0x06
     306:	90 93 af 00 	sts	0x00AF, r25
     30a:	80 93 ae 00 	sts	0x00AE, r24
		TIMER0_OC_INTERRUPT_ENABLE();
     30e:	a9 e5       	ldi	r26, 0x59	; 89
     310:	b0 e0       	ldi	r27, 0x00	; 0
     312:	e9 e5       	ldi	r30, 0x59	; 89
     314:	f0 e0       	ldi	r31, 0x00	; 0
     316:	80 81       	ld	r24, Z
     318:	82 60       	ori	r24, 0x02	; 2
     31a:	8c 93       	st	X, r24
	}
	return ret;
     31c:	89 81       	ldd	r24, Y+1	; 0x01
}
     31e:	0f 90       	pop	r0
     320:	0f 90       	pop	r0
     322:	0f 90       	pop	r0
     324:	cf 91       	pop	r28
     326:	df 91       	pop	r29
     328:	08 95       	ret

0000032a <TMR0_OC_Iterrupt_Disnable>:
 * @return Status of the function
 *          (E_OK) : The function done successfully
 *          (E_NOT_OK) : The function has issue to perform this action
 */
Std_ReturnType TMR0_OC_Iterrupt_Disnable(const ST_timer0_t* timer_0)
{
     32a:	df 93       	push	r29
     32c:	cf 93       	push	r28
     32e:	00 d0       	rcall	.+0      	; 0x330 <TMR0_OC_Iterrupt_Disnable+0x6>
     330:	0f 92       	push	r0
     332:	cd b7       	in	r28, 0x3d	; 61
     334:	de b7       	in	r29, 0x3e	; 62
     336:	9b 83       	std	Y+3, r25	; 0x03
     338:	8a 83       	std	Y+2, r24	; 0x02
	Std_ReturnType ret = E_OK;
     33a:	81 e0       	ldi	r24, 0x01	; 1
     33c:	89 83       	std	Y+1, r24	; 0x01
	if(timer_0 == NULL)
     33e:	8a 81       	ldd	r24, Y+2	; 0x02
     340:	9b 81       	ldd	r25, Y+3	; 0x03
     342:	00 97       	sbiw	r24, 0x00	; 0
     344:	11 f4       	brne	.+4      	; 0x34a <TMR0_OC_Iterrupt_Disnable+0x20>
	{
		ret = E_NOT_OK;
     346:	19 82       	std	Y+1, r1	; 0x01
     348:	0b c0       	rjmp	.+22     	; 0x360 <TMR0_OC_Iterrupt_Disnable+0x36>
	}
	else
	{
		tmr0_OC_interruptHandler = NULL;
     34a:	10 92 af 00 	sts	0x00AF, r1
     34e:	10 92 ae 00 	sts	0x00AE, r1
		TIMER0_OC_INTERRUPT_DISABLE();
     352:	a9 e5       	ldi	r26, 0x59	; 89
     354:	b0 e0       	ldi	r27, 0x00	; 0
     356:	e9 e5       	ldi	r30, 0x59	; 89
     358:	f0 e0       	ldi	r31, 0x00	; 0
     35a:	80 81       	ld	r24, Z
     35c:	8d 7f       	andi	r24, 0xFD	; 253
     35e:	8c 93       	st	X, r24
	}
	return ret;
     360:	89 81       	ldd	r24, Y+1	; 0x01
}
     362:	0f 90       	pop	r0
     364:	0f 90       	pop	r0
     366:	0f 90       	pop	r0
     368:	cf 91       	pop	r28
     36a:	df 91       	pop	r29
     36c:	08 95       	ret

0000036e <__vector_11>:



ISR(TIMER0_OVF_vect)
{
     36e:	1f 92       	push	r1
     370:	0f 92       	push	r0
     372:	0f b6       	in	r0, 0x3f	; 63
     374:	0f 92       	push	r0
     376:	11 24       	eor	r1, r1
     378:	2f 93       	push	r18
     37a:	3f 93       	push	r19
     37c:	4f 93       	push	r20
     37e:	5f 93       	push	r21
     380:	6f 93       	push	r22
     382:	7f 93       	push	r23
     384:	8f 93       	push	r24
     386:	9f 93       	push	r25
     388:	af 93       	push	r26
     38a:	bf 93       	push	r27
     38c:	ef 93       	push	r30
     38e:	ff 93       	push	r31
     390:	df 93       	push	r29
     392:	cf 93       	push	r28
     394:	cd b7       	in	r28, 0x3d	; 61
     396:	de b7       	in	r29, 0x3e	; 62
	if(tmr0_overFlow_interruptHandler != NULL)
     398:	80 91 ac 00 	lds	r24, 0x00AC
     39c:	90 91 ad 00 	lds	r25, 0x00AD
     3a0:	00 97       	sbiw	r24, 0x00	; 0
     3a2:	29 f0       	breq	.+10     	; 0x3ae <__vector_11+0x40>
	{
		tmr0_overFlow_interruptHandler();
     3a4:	e0 91 ac 00 	lds	r30, 0x00AC
     3a8:	f0 91 ad 00 	lds	r31, 0x00AD
     3ac:	09 95       	icall
	}
}
     3ae:	cf 91       	pop	r28
     3b0:	df 91       	pop	r29
     3b2:	ff 91       	pop	r31
     3b4:	ef 91       	pop	r30
     3b6:	bf 91       	pop	r27
     3b8:	af 91       	pop	r26
     3ba:	9f 91       	pop	r25
     3bc:	8f 91       	pop	r24
     3be:	7f 91       	pop	r23
     3c0:	6f 91       	pop	r22
     3c2:	5f 91       	pop	r21
     3c4:	4f 91       	pop	r20
     3c6:	3f 91       	pop	r19
     3c8:	2f 91       	pop	r18
     3ca:	0f 90       	pop	r0
     3cc:	0f be       	out	0x3f, r0	; 63
     3ce:	0f 90       	pop	r0
     3d0:	1f 90       	pop	r1
     3d2:	18 95       	reti

000003d4 <__vector_10>:

ISR(TIMER0_COMP_vect)
{
     3d4:	1f 92       	push	r1
     3d6:	0f 92       	push	r0
     3d8:	0f b6       	in	r0, 0x3f	; 63
     3da:	0f 92       	push	r0
     3dc:	11 24       	eor	r1, r1
     3de:	2f 93       	push	r18
     3e0:	3f 93       	push	r19
     3e2:	4f 93       	push	r20
     3e4:	5f 93       	push	r21
     3e6:	6f 93       	push	r22
     3e8:	7f 93       	push	r23
     3ea:	8f 93       	push	r24
     3ec:	9f 93       	push	r25
     3ee:	af 93       	push	r26
     3f0:	bf 93       	push	r27
     3f2:	ef 93       	push	r30
     3f4:	ff 93       	push	r31
     3f6:	df 93       	push	r29
     3f8:	cf 93       	push	r28
     3fa:	cd b7       	in	r28, 0x3d	; 61
     3fc:	de b7       	in	r29, 0x3e	; 62
	if(tmr0_OC_interruptHandler != NULL)
     3fe:	80 91 ae 00 	lds	r24, 0x00AE
     402:	90 91 af 00 	lds	r25, 0x00AF
     406:	00 97       	sbiw	r24, 0x00	; 0
     408:	29 f0       	breq	.+10     	; 0x414 <__vector_10+0x40>
	{
		tmr0_OC_interruptHandler();
     40a:	e0 91 ae 00 	lds	r30, 0x00AE
     40e:	f0 91 af 00 	lds	r31, 0x00AF
     412:	09 95       	icall
	}
}
     414:	cf 91       	pop	r28
     416:	df 91       	pop	r29
     418:	ff 91       	pop	r31
     41a:	ef 91       	pop	r30
     41c:	bf 91       	pop	r27
     41e:	af 91       	pop	r26
     420:	9f 91       	pop	r25
     422:	8f 91       	pop	r24
     424:	7f 91       	pop	r23
     426:	6f 91       	pop	r22
     428:	5f 91       	pop	r21
     42a:	4f 91       	pop	r20
     42c:	3f 91       	pop	r19
     42e:	2f 91       	pop	r18
     430:	0f 90       	pop	r0
     432:	0f be       	out	0x3f, r0	; 63
     434:	0f 90       	pop	r0
     436:	1f 90       	pop	r1
     438:	18 95       	reti

0000043a <delay5s>:
 	 Desired Delay: 5 seconds
 	 Overflow Time: (8 * 256) / 8000000 = 0.000256
 	 Overflows Needed: 5 /  0.000256 = 19,531.25
   */
void delay5s()
{
     43a:	df 93       	push	r29
     43c:	cf 93       	push	r28
     43e:	00 d0       	rcall	.+0      	; 0x440 <delay5s+0x6>
     440:	cd b7       	in	r28, 0x3d	; 61
     442:	de b7       	in	r29, 0x3e	; 62
	/* normal mode */
	CLR_BIT(TCCR0,WGM00);
     444:	a3 e5       	ldi	r26, 0x53	; 83
     446:	b0 e0       	ldi	r27, 0x00	; 0
     448:	e3 e5       	ldi	r30, 0x53	; 83
     44a:	f0 e0       	ldi	r31, 0x00	; 0
     44c:	80 81       	ld	r24, Z
     44e:	8f 7b       	andi	r24, 0xBF	; 191
     450:	8c 93       	st	X, r24
	CLR_BIT(TCCR0,WGM01);
     452:	a3 e5       	ldi	r26, 0x53	; 83
     454:	b0 e0       	ldi	r27, 0x00	; 0
     456:	e3 e5       	ldi	r30, 0x53	; 83
     458:	f0 e0       	ldi	r31, 0x00	; 0
     45a:	80 81       	ld	r24, Z
     45c:	87 7f       	andi	r24, 0xF7	; 247
     45e:	8c 93       	st	X, r24

	SET_PERSCALLEER(TIMER0_8_PRESCALER);
     460:	a3 e5       	ldi	r26, 0x53	; 83
     462:	b0 e0       	ldi	r27, 0x00	; 0
     464:	e3 e5       	ldi	r30, 0x53	; 83
     466:	f0 e0       	ldi	r31, 0x00	; 0
     468:	80 81       	ld	r24, Z
     46a:	82 60       	ori	r24, 0x02	; 2
     46c:	8c 93       	st	X, r24

	TCNT0 = 56;
     46e:	e2 e5       	ldi	r30, 0x52	; 82
     470:	f0 e0       	ldi	r31, 0x00	; 0
     472:	88 e3       	ldi	r24, 0x38	; 56
     474:	80 83       	st	Z, r24

	for(uint16 i=0 ; i<25000 ; i++)
     476:	1a 82       	std	Y+2, r1	; 0x02
     478:	19 82       	std	Y+1, r1	; 0x01
     47a:	0e c0       	rjmp	.+28     	; 0x498 <delay5s+0x5e>
	{
		while(TCNT0);
     47c:	e2 e5       	ldi	r30, 0x52	; 82
     47e:	f0 e0       	ldi	r31, 0x00	; 0
     480:	80 81       	ld	r24, Z
     482:	88 23       	and	r24, r24
     484:	d9 f7       	brne	.-10     	; 0x47c <delay5s+0x42>
		TCNT0 = 56;
     486:	e2 e5       	ldi	r30, 0x52	; 82
     488:	f0 e0       	ldi	r31, 0x00	; 0
     48a:	88 e3       	ldi	r24, 0x38	; 56
     48c:	80 83       	st	Z, r24

	SET_PERSCALLEER(TIMER0_8_PRESCALER);

	TCNT0 = 56;

	for(uint16 i=0 ; i<25000 ; i++)
     48e:	89 81       	ldd	r24, Y+1	; 0x01
     490:	9a 81       	ldd	r25, Y+2	; 0x02
     492:	01 96       	adiw	r24, 0x01	; 1
     494:	9a 83       	std	Y+2, r25	; 0x02
     496:	89 83       	std	Y+1, r24	; 0x01
     498:	89 81       	ldd	r24, Y+1	; 0x01
     49a:	9a 81       	ldd	r25, Y+2	; 0x02
     49c:	21 e6       	ldi	r18, 0x61	; 97
     49e:	88 3a       	cpi	r24, 0xA8	; 168
     4a0:	92 07       	cpc	r25, r18
     4a2:	60 f3       	brcs	.-40     	; 0x47c <delay5s+0x42>
	{
		while(TCNT0);
		TCNT0 = 56;
	}
}
     4a4:	0f 90       	pop	r0
     4a6:	0f 90       	pop	r0
     4a8:	cf 91       	pop	r28
     4aa:	df 91       	pop	r29
     4ac:	08 95       	ret

000004ae <timerTest>:
	.pin = PIN0,
	.status = LED_OFF
};

int timerTest(void)
{
     4ae:	df 93       	push	r29
     4b0:	cf 93       	push	r28
     4b2:	00 d0       	rcall	.+0      	; 0x4b4 <timerTest+0x6>
     4b4:	cd b7       	in	r28, 0x3d	; 61
     4b6:	de b7       	in	r29, 0x3e	; 62
	TMR0_init(&tmr);
     4b8:	80 e6       	ldi	r24, 0x60	; 96
     4ba:	90 e0       	ldi	r25, 0x00	; 0
     4bc:	0e 94 49 00 	call	0x92	; 0x92 <TMR0_init>
	Led_Init(&led);
     4c0:	87 e6       	ldi	r24, 0x67	; 103
     4c2:	90 e0       	ldi	r25, 0x00	; 0
     4c4:	0e 94 98 06 	call	0xd30	; 0xd30 <Led_Init>

	while(1)
	{
		Led_Toggle(&led);
     4c8:	87 e6       	ldi	r24, 0x67	; 103
     4ca:	90 e0       	ldi	r25, 0x00	; 0
     4cc:	0e 94 30 07 	call	0xe60	; 0xe60 <Led_Toggle>

		TMR0_Write_Value(56);
     4d0:	88 e3       	ldi	r24, 0x38	; 56
     4d2:	0e 94 f8 00 	call	0x1f0	; 0x1f0 <TMR0_Write_Value>
		for(uint16 i=0 ; i<5000 ; i++)
     4d6:	1a 82       	std	Y+2, r1	; 0x02
     4d8:	19 82       	std	Y+1, r1	; 0x01
     4da:	0d c0       	rjmp	.+26     	; 0x4f6 <timerTest+0x48>
		{
			while(TCNT0);
     4dc:	e2 e5       	ldi	r30, 0x52	; 82
     4de:	f0 e0       	ldi	r31, 0x00	; 0
     4e0:	80 81       	ld	r24, Z
     4e2:	88 23       	and	r24, r24
     4e4:	d9 f7       	brne	.-10     	; 0x4dc <timerTest+0x2e>
			TMR0_Write_Value(56);
     4e6:	88 e3       	ldi	r24, 0x38	; 56
     4e8:	0e 94 f8 00 	call	0x1f0	; 0x1f0 <TMR0_Write_Value>
	while(1)
	{
		Led_Toggle(&led);

		TMR0_Write_Value(56);
		for(uint16 i=0 ; i<5000 ; i++)
     4ec:	89 81       	ldd	r24, Y+1	; 0x01
     4ee:	9a 81       	ldd	r25, Y+2	; 0x02
     4f0:	01 96       	adiw	r24, 0x01	; 1
     4f2:	9a 83       	std	Y+2, r25	; 0x02
     4f4:	89 83       	std	Y+1, r24	; 0x01
     4f6:	89 81       	ldd	r24, Y+1	; 0x01
     4f8:	9a 81       	ldd	r25, Y+2	; 0x02
     4fa:	23 e1       	ldi	r18, 0x13	; 19
     4fc:	88 38       	cpi	r24, 0x88	; 136
     4fe:	92 07       	cpc	r25, r18
     500:	68 f3       	brcs	.-38     	; 0x4dc <timerTest+0x2e>
     502:	e2 cf       	rjmp	.-60     	; 0x4c8 <timerTest+0x1a>

00000504 <EXI_interrupt_init>:
 * @return Status of the function
 *          (E_OK) : The function done successfully
 *          (E_NOT_OK) : The function has issue to perform this action
 */
Std_ReturnType EXI_interrupt_init(const ST_externalInterrupt_t* interrupt)
{
     504:	df 93       	push	r29
     506:	cf 93       	push	r28
     508:	00 d0       	rcall	.+0      	; 0x50a <EXI_interrupt_init+0x6>
     50a:	0f 92       	push	r0
     50c:	cd b7       	in	r28, 0x3d	; 61
     50e:	de b7       	in	r29, 0x3e	; 62
     510:	9b 83       	std	Y+3, r25	; 0x03
     512:	8a 83       	std	Y+2, r24	; 0x02
	Std_ReturnType ret = E_OK;
     514:	81 e0       	ldi	r24, 0x01	; 1
     516:	89 83       	std	Y+1, r24	; 0x01
	if(NULL == interrupt)
     518:	8a 81       	ldd	r24, Y+2	; 0x02
     51a:	9b 81       	ldd	r25, Y+3	; 0x03
     51c:	00 97       	sbiw	r24, 0x00	; 0
     51e:	11 f4       	brne	.+4      	; 0x524 <EXI_interrupt_init+0x20>
	{
		ret = E_NOT_OK;
     520:	19 82       	std	Y+1, r1	; 0x01
     522:	08 c0       	rjmp	.+16     	; 0x534 <EXI_interrupt_init+0x30>
	}
	else
	{
		EXI_SET_SOURCE(interrupt);
     524:	8a 81       	ldd	r24, Y+2	; 0x02
     526:	9b 81       	ldd	r25, Y+3	; 0x03
     528:	0e 94 ea 02 	call	0x5d4	; 0x5d4 <EXI_SET_SOURCE>
		EXI_SET_EDGE(interrupt);
     52c:	8a 81       	ldd	r24, Y+2	; 0x02
     52e:	9b 81       	ldd	r25, Y+3	; 0x03
     530:	0e 94 25 03 	call	0x64a	; 0x64a <EXI_SET_EDGE>
	}
	return ret;
     534:	89 81       	ldd	r24, Y+1	; 0x01
}
     536:	0f 90       	pop	r0
     538:	0f 90       	pop	r0
     53a:	0f 90       	pop	r0
     53c:	cf 91       	pop	r28
     53e:	df 91       	pop	r29
     540:	08 95       	ret

00000542 <EXI_CallBack>:
 * @return Status of the function
 *          (E_OK) : The function done successfully
 *          (E_NOT_OK) : The function has issue to perform this action
 */
Std_ReturnType EXI_CallBack(const ST_externalInterrupt_t* interrupt)
{
     542:	df 93       	push	r29
     544:	cf 93       	push	r28
     546:	00 d0       	rcall	.+0      	; 0x548 <EXI_CallBack+0x6>
     548:	00 d0       	rcall	.+0      	; 0x54a <EXI_CallBack+0x8>
     54a:	0f 92       	push	r0
     54c:	cd b7       	in	r28, 0x3d	; 61
     54e:	de b7       	in	r29, 0x3e	; 62
     550:	9b 83       	std	Y+3, r25	; 0x03
     552:	8a 83       	std	Y+2, r24	; 0x02
	Std_ReturnType ret = E_OK;
     554:	81 e0       	ldi	r24, 0x01	; 1
     556:	89 83       	std	Y+1, r24	; 0x01
	if(NULL == interrupt)
     558:	8a 81       	ldd	r24, Y+2	; 0x02
     55a:	9b 81       	ldd	r25, Y+3	; 0x03
     55c:	00 97       	sbiw	r24, 0x00	; 0
     55e:	11 f4       	brne	.+4      	; 0x564 <EXI_CallBack+0x22>
	{
		ret = E_NOT_OK;
     560:	19 82       	std	Y+1, r1	; 0x01
     562:	2f c0       	rjmp	.+94     	; 0x5c2 <EXI_CallBack+0x80>
	}
	else
	{
		switch(interrupt->source)
     564:	ea 81       	ldd	r30, Y+2	; 0x02
     566:	fb 81       	ldd	r31, Y+3	; 0x03
     568:	80 81       	ld	r24, Z
     56a:	28 2f       	mov	r18, r24
     56c:	30 e0       	ldi	r19, 0x00	; 0
     56e:	3d 83       	std	Y+5, r19	; 0x05
     570:	2c 83       	std	Y+4, r18	; 0x04
     572:	8c 81       	ldd	r24, Y+4	; 0x04
     574:	9d 81       	ldd	r25, Y+5	; 0x05
     576:	81 30       	cpi	r24, 0x01	; 1
     578:	91 05       	cpc	r25, r1
     57a:	91 f0       	breq	.+36     	; 0x5a0 <EXI_CallBack+0x5e>
     57c:	2c 81       	ldd	r18, Y+4	; 0x04
     57e:	3d 81       	ldd	r19, Y+5	; 0x05
     580:	22 30       	cpi	r18, 0x02	; 2
     582:	31 05       	cpc	r19, r1
     584:	b1 f0       	breq	.+44     	; 0x5b2 <EXI_CallBack+0x70>
     586:	8c 81       	ldd	r24, Y+4	; 0x04
     588:	9d 81       	ldd	r25, Y+5	; 0x05
     58a:	00 97       	sbiw	r24, 0x00	; 0
     58c:	d1 f4       	brne	.+52     	; 0x5c2 <EXI_CallBack+0x80>
		{
			case EXI_INT0:
				INT0_fptr = (interrupt->INT0_fpt);break;
     58e:	ea 81       	ldd	r30, Y+2	; 0x02
     590:	fb 81       	ldd	r31, Y+3	; 0x03
     592:	82 81       	ldd	r24, Z+2	; 0x02
     594:	93 81       	ldd	r25, Z+3	; 0x03
     596:	90 93 b1 00 	sts	0x00B1, r25
     59a:	80 93 b0 00 	sts	0x00B0, r24
     59e:	11 c0       	rjmp	.+34     	; 0x5c2 <EXI_CallBack+0x80>
			case EXI_INT1:
				INT1_fptr = (interrupt->INT1_fpt);break;
     5a0:	ea 81       	ldd	r30, Y+2	; 0x02
     5a2:	fb 81       	ldd	r31, Y+3	; 0x03
     5a4:	84 81       	ldd	r24, Z+4	; 0x04
     5a6:	95 81       	ldd	r25, Z+5	; 0x05
     5a8:	90 93 b3 00 	sts	0x00B3, r25
     5ac:	80 93 b2 00 	sts	0x00B2, r24
     5b0:	08 c0       	rjmp	.+16     	; 0x5c2 <EXI_CallBack+0x80>
			case EXI_INT2:
				INT2_fptr = (interrupt->INT2_fpt);break;
     5b2:	ea 81       	ldd	r30, Y+2	; 0x02
     5b4:	fb 81       	ldd	r31, Y+3	; 0x03
     5b6:	86 81       	ldd	r24, Z+6	; 0x06
     5b8:	97 81       	ldd	r25, Z+7	; 0x07
     5ba:	90 93 b5 00 	sts	0x00B5, r25
     5be:	80 93 b4 00 	sts	0x00B4, r24
		}
	}
	return ret;
     5c2:	89 81       	ldd	r24, Y+1	; 0x01
}
     5c4:	0f 90       	pop	r0
     5c6:	0f 90       	pop	r0
     5c8:	0f 90       	pop	r0
     5ca:	0f 90       	pop	r0
     5cc:	0f 90       	pop	r0
     5ce:	cf 91       	pop	r28
     5d0:	df 91       	pop	r29
     5d2:	08 95       	ret

000005d4 <EXI_SET_SOURCE>:
 * @return Status of the function
 *          (E_OK) : The function done successfully
 *          (E_NOT_OK) : The function has issue to perform this action
 */
static void EXI_SET_SOURCE(const ST_externalInterrupt_t* interrupt)
{
     5d4:	df 93       	push	r29
     5d6:	cf 93       	push	r28
     5d8:	00 d0       	rcall	.+0      	; 0x5da <EXI_SET_SOURCE+0x6>
     5da:	00 d0       	rcall	.+0      	; 0x5dc <EXI_SET_SOURCE+0x8>
     5dc:	cd b7       	in	r28, 0x3d	; 61
     5de:	de b7       	in	r29, 0x3e	; 62
     5e0:	9a 83       	std	Y+2, r25	; 0x02
     5e2:	89 83       	std	Y+1, r24	; 0x01
	switch(interrupt->source)
     5e4:	e9 81       	ldd	r30, Y+1	; 0x01
     5e6:	fa 81       	ldd	r31, Y+2	; 0x02
     5e8:	80 81       	ld	r24, Z
     5ea:	28 2f       	mov	r18, r24
     5ec:	30 e0       	ldi	r19, 0x00	; 0
     5ee:	3c 83       	std	Y+4, r19	; 0x04
     5f0:	2b 83       	std	Y+3, r18	; 0x03
     5f2:	8b 81       	ldd	r24, Y+3	; 0x03
     5f4:	9c 81       	ldd	r25, Y+4	; 0x04
     5f6:	81 30       	cpi	r24, 0x01	; 1
     5f8:	91 05       	cpc	r25, r1
     5fa:	89 f0       	breq	.+34     	; 0x61e <EXI_SET_SOURCE+0x4a>
     5fc:	2b 81       	ldd	r18, Y+3	; 0x03
     5fe:	3c 81       	ldd	r19, Y+4	; 0x04
     600:	22 30       	cpi	r18, 0x02	; 2
     602:	31 05       	cpc	r19, r1
     604:	a1 f0       	breq	.+40     	; 0x62e <EXI_SET_SOURCE+0x5a>
     606:	8b 81       	ldd	r24, Y+3	; 0x03
     608:	9c 81       	ldd	r25, Y+4	; 0x04
     60a:	00 97       	sbiw	r24, 0x00	; 0
     60c:	b9 f4       	brne	.+46     	; 0x63c <EXI_SET_SOURCE+0x68>
	{
		case EXI_INT0:
			SET_BIT(GICR,INT0);break;
     60e:	ab e5       	ldi	r26, 0x5B	; 91
     610:	b0 e0       	ldi	r27, 0x00	; 0
     612:	eb e5       	ldi	r30, 0x5B	; 91
     614:	f0 e0       	ldi	r31, 0x00	; 0
     616:	80 81       	ld	r24, Z
     618:	80 64       	ori	r24, 0x40	; 64
     61a:	8c 93       	st	X, r24
     61c:	0f c0       	rjmp	.+30     	; 0x63c <EXI_SET_SOURCE+0x68>
		case EXI_INT1:
			SET_BIT(GICR,INT1);break;
     61e:	ab e5       	ldi	r26, 0x5B	; 91
     620:	b0 e0       	ldi	r27, 0x00	; 0
     622:	eb e5       	ldi	r30, 0x5B	; 91
     624:	f0 e0       	ldi	r31, 0x00	; 0
     626:	80 81       	ld	r24, Z
     628:	80 68       	ori	r24, 0x80	; 128
     62a:	8c 93       	st	X, r24
     62c:	07 c0       	rjmp	.+14     	; 0x63c <EXI_SET_SOURCE+0x68>
		case EXI_INT2:
			SET_BIT(GICR,INT2);break;
     62e:	ab e5       	ldi	r26, 0x5B	; 91
     630:	b0 e0       	ldi	r27, 0x00	; 0
     632:	eb e5       	ldi	r30, 0x5B	; 91
     634:	f0 e0       	ldi	r31, 0x00	; 0
     636:	80 81       	ld	r24, Z
     638:	80 62       	ori	r24, 0x20	; 32
     63a:	8c 93       	st	X, r24
	}
}
     63c:	0f 90       	pop	r0
     63e:	0f 90       	pop	r0
     640:	0f 90       	pop	r0
     642:	0f 90       	pop	r0
     644:	cf 91       	pop	r28
     646:	df 91       	pop	r29
     648:	08 95       	ret

0000064a <EXI_SET_EDGE>:
 * @return Status of the function
 *          (E_OK) : The function done successfully
 *          (E_NOT_OK) : The function has issue to perform this action
 */
static void EXI_SET_EDGE(const ST_externalInterrupt_t* interrupt)
{
     64a:	df 93       	push	r29
     64c:	cf 93       	push	r28
     64e:	cd b7       	in	r28, 0x3d	; 61
     650:	de b7       	in	r29, 0x3e	; 62
     652:	2a 97       	sbiw	r28, 0x0a	; 10
     654:	0f b6       	in	r0, 0x3f	; 63
     656:	f8 94       	cli
     658:	de bf       	out	0x3e, r29	; 62
     65a:	0f be       	out	0x3f, r0	; 63
     65c:	cd bf       	out	0x3d, r28	; 61
     65e:	9a 83       	std	Y+2, r25	; 0x02
     660:	89 83       	std	Y+1, r24	; 0x01
	switch(interrupt->source)
     662:	e9 81       	ldd	r30, Y+1	; 0x01
     664:	fa 81       	ldd	r31, Y+2	; 0x02
     666:	80 81       	ld	r24, Z
     668:	28 2f       	mov	r18, r24
     66a:	30 e0       	ldi	r19, 0x00	; 0
     66c:	3a 87       	std	Y+10, r19	; 0x0a
     66e:	29 87       	std	Y+9, r18	; 0x09
     670:	89 85       	ldd	r24, Y+9	; 0x09
     672:	9a 85       	ldd	r25, Y+10	; 0x0a
     674:	81 30       	cpi	r24, 0x01	; 1
     676:	91 05       	cpc	r25, r1
     678:	09 f4       	brne	.+2      	; 0x67c <EXI_SET_EDGE+0x32>
     67a:	4b c0       	rjmp	.+150    	; 0x712 <EXI_SET_EDGE+0xc8>
     67c:	29 85       	ldd	r18, Y+9	; 0x09
     67e:	3a 85       	ldd	r19, Y+10	; 0x0a
     680:	22 30       	cpi	r18, 0x02	; 2
     682:	31 05       	cpc	r19, r1
     684:	09 f4       	brne	.+2      	; 0x688 <EXI_SET_EDGE+0x3e>
     686:	85 c0       	rjmp	.+266    	; 0x792 <EXI_SET_EDGE+0x148>
     688:	89 85       	ldd	r24, Y+9	; 0x09
     68a:	9a 85       	ldd	r25, Y+10	; 0x0a
     68c:	00 97       	sbiw	r24, 0x00	; 0
     68e:	09 f0       	breq	.+2      	; 0x692 <EXI_SET_EDGE+0x48>
     690:	9e c0       	rjmp	.+316    	; 0x7ce <EXI_SET_EDGE+0x184>
	{
		case EXI_INT0:
			switch(interrupt->edge)
     692:	e9 81       	ldd	r30, Y+1	; 0x01
     694:	fa 81       	ldd	r31, Y+2	; 0x02
     696:	81 81       	ldd	r24, Z+1	; 0x01
     698:	28 2f       	mov	r18, r24
     69a:	30 e0       	ldi	r19, 0x00	; 0
     69c:	38 87       	std	Y+8, r19	; 0x08
     69e:	2f 83       	std	Y+7, r18	; 0x07
     6a0:	8f 81       	ldd	r24, Y+7	; 0x07
     6a2:	98 85       	ldd	r25, Y+8	; 0x08
     6a4:	81 30       	cpi	r24, 0x01	; 1
     6a6:	91 05       	cpc	r25, r1
     6a8:	e1 f0       	breq	.+56     	; 0x6e2 <EXI_SET_EDGE+0x98>
     6aa:	2f 81       	ldd	r18, Y+7	; 0x07
     6ac:	38 85       	ldd	r19, Y+8	; 0x08
     6ae:	22 30       	cpi	r18, 0x02	; 2
     6b0:	31 05       	cpc	r19, r1
     6b2:	2c f4       	brge	.+10     	; 0x6be <EXI_SET_EDGE+0x74>
     6b4:	8f 81       	ldd	r24, Y+7	; 0x07
     6b6:	98 85       	ldd	r25, Y+8	; 0x08
     6b8:	00 97       	sbiw	r24, 0x00	; 0
     6ba:	61 f0       	breq	.+24     	; 0x6d4 <EXI_SET_EDGE+0x8a>
     6bc:	88 c0       	rjmp	.+272    	; 0x7ce <EXI_SET_EDGE+0x184>
     6be:	2f 81       	ldd	r18, Y+7	; 0x07
     6c0:	38 85       	ldd	r19, Y+8	; 0x08
     6c2:	22 30       	cpi	r18, 0x02	; 2
     6c4:	31 05       	cpc	r19, r1
     6c6:	e9 f0       	breq	.+58     	; 0x702 <EXI_SET_EDGE+0xb8>
     6c8:	8f 81       	ldd	r24, Y+7	; 0x07
     6ca:	98 85       	ldd	r25, Y+8	; 0x08
     6cc:	83 30       	cpi	r24, 0x03	; 3
     6ce:	91 05       	cpc	r25, r1
     6d0:	81 f0       	breq	.+32     	; 0x6f2 <EXI_SET_EDGE+0xa8>
     6d2:	7d c0       	rjmp	.+250    	; 0x7ce <EXI_SET_EDGE+0x184>
			{
				case EXI_INT0_GENERATE_INTERRUPT_AT_LOW_LEVEL:
					EXI_INT0_SET_EDGE(EXI_INT0_GENERATE_INTERRUPT_AT_LOW_LEVEL);break;
     6d4:	e5 e5       	ldi	r30, 0x55	; 85
     6d6:	f0 e0       	ldi	r31, 0x00	; 0
     6d8:	a5 e5       	ldi	r26, 0x55	; 85
     6da:	b0 e0       	ldi	r27, 0x00	; 0
     6dc:	8c 91       	ld	r24, X
     6de:	80 83       	st	Z, r24
     6e0:	76 c0       	rjmp	.+236    	; 0x7ce <EXI_SET_EDGE+0x184>
				case EXI_INT0_GENERATE_INTERRUPT_AT_HIGH_LEVEL:
					EXI_INT0_SET_EDGE(EXI_INT0_GENERATE_INTERRUPT_AT_HIGH_LEVEL);break;
     6e2:	a5 e5       	ldi	r26, 0x55	; 85
     6e4:	b0 e0       	ldi	r27, 0x00	; 0
     6e6:	e5 e5       	ldi	r30, 0x55	; 85
     6e8:	f0 e0       	ldi	r31, 0x00	; 0
     6ea:	80 81       	ld	r24, Z
     6ec:	81 60       	ori	r24, 0x01	; 1
     6ee:	8c 93       	st	X, r24
     6f0:	6e c0       	rjmp	.+220    	; 0x7ce <EXI_SET_EDGE+0x184>
				case EXI_INT0_GENERATE_INTERRUPT_AT_RISING_EDGE:
					EXI_INT0_SET_EDGE(EXI_INT0_GENERATE_INTERRUPT_AT_RISING_EDGE);break;
     6f2:	a5 e5       	ldi	r26, 0x55	; 85
     6f4:	b0 e0       	ldi	r27, 0x00	; 0
     6f6:	e5 e5       	ldi	r30, 0x55	; 85
     6f8:	f0 e0       	ldi	r31, 0x00	; 0
     6fa:	80 81       	ld	r24, Z
     6fc:	83 60       	ori	r24, 0x03	; 3
     6fe:	8c 93       	st	X, r24
     700:	66 c0       	rjmp	.+204    	; 0x7ce <EXI_SET_EDGE+0x184>
				case EXI_INT0_GENERATE_INTERRUPT_AT_FALLING_EDGE:
					EXI_INT0_SET_EDGE(EXI_INT0_GENERATE_INTERRUPT_AT_FALLING_EDGE);break;
     702:	a5 e5       	ldi	r26, 0x55	; 85
     704:	b0 e0       	ldi	r27, 0x00	; 0
     706:	e5 e5       	ldi	r30, 0x55	; 85
     708:	f0 e0       	ldi	r31, 0x00	; 0
     70a:	80 81       	ld	r24, Z
     70c:	82 60       	ori	r24, 0x02	; 2
     70e:	8c 93       	st	X, r24
     710:	5e c0       	rjmp	.+188    	; 0x7ce <EXI_SET_EDGE+0x184>
			}
			break;

		case EXI_INT1:
			switch(interrupt->edge)
     712:	e9 81       	ldd	r30, Y+1	; 0x01
     714:	fa 81       	ldd	r31, Y+2	; 0x02
     716:	81 81       	ldd	r24, Z+1	; 0x01
     718:	28 2f       	mov	r18, r24
     71a:	30 e0       	ldi	r19, 0x00	; 0
     71c:	3e 83       	std	Y+6, r19	; 0x06
     71e:	2d 83       	std	Y+5, r18	; 0x05
     720:	8d 81       	ldd	r24, Y+5	; 0x05
     722:	9e 81       	ldd	r25, Y+6	; 0x06
     724:	81 30       	cpi	r24, 0x01	; 1
     726:	91 05       	cpc	r25, r1
     728:	e1 f0       	breq	.+56     	; 0x762 <EXI_SET_EDGE+0x118>
     72a:	2d 81       	ldd	r18, Y+5	; 0x05
     72c:	3e 81       	ldd	r19, Y+6	; 0x06
     72e:	22 30       	cpi	r18, 0x02	; 2
     730:	31 05       	cpc	r19, r1
     732:	2c f4       	brge	.+10     	; 0x73e <EXI_SET_EDGE+0xf4>
     734:	8d 81       	ldd	r24, Y+5	; 0x05
     736:	9e 81       	ldd	r25, Y+6	; 0x06
     738:	00 97       	sbiw	r24, 0x00	; 0
     73a:	61 f0       	breq	.+24     	; 0x754 <EXI_SET_EDGE+0x10a>
     73c:	48 c0       	rjmp	.+144    	; 0x7ce <EXI_SET_EDGE+0x184>
     73e:	2d 81       	ldd	r18, Y+5	; 0x05
     740:	3e 81       	ldd	r19, Y+6	; 0x06
     742:	22 30       	cpi	r18, 0x02	; 2
     744:	31 05       	cpc	r19, r1
     746:	e9 f0       	breq	.+58     	; 0x782 <EXI_SET_EDGE+0x138>
     748:	8d 81       	ldd	r24, Y+5	; 0x05
     74a:	9e 81       	ldd	r25, Y+6	; 0x06
     74c:	83 30       	cpi	r24, 0x03	; 3
     74e:	91 05       	cpc	r25, r1
     750:	81 f0       	breq	.+32     	; 0x772 <EXI_SET_EDGE+0x128>
     752:	3d c0       	rjmp	.+122    	; 0x7ce <EXI_SET_EDGE+0x184>
			{
				case EXI_INT1_GENERATE_INTERRUPT_AT_LOW_LEVEL:
					EXI_INT0_SET_EDGE(EXI_INT1_GENERATE_INTERRUPT_AT_LOW_LEVEL);break;
     754:	e5 e5       	ldi	r30, 0x55	; 85
     756:	f0 e0       	ldi	r31, 0x00	; 0
     758:	a5 e5       	ldi	r26, 0x55	; 85
     75a:	b0 e0       	ldi	r27, 0x00	; 0
     75c:	8c 91       	ld	r24, X
     75e:	80 83       	st	Z, r24
     760:	36 c0       	rjmp	.+108    	; 0x7ce <EXI_SET_EDGE+0x184>
				case EXI_INT1_GENERATE_INTERRUPT_AT_HIGH_LEVEL:
					EXI_INT0_SET_EDGE(EXI_INT1_GENERATE_INTERRUPT_AT_HIGH_LEVEL);break;
     762:	a5 e5       	ldi	r26, 0x55	; 85
     764:	b0 e0       	ldi	r27, 0x00	; 0
     766:	e5 e5       	ldi	r30, 0x55	; 85
     768:	f0 e0       	ldi	r31, 0x00	; 0
     76a:	80 81       	ld	r24, Z
     76c:	81 60       	ori	r24, 0x01	; 1
     76e:	8c 93       	st	X, r24
     770:	2e c0       	rjmp	.+92     	; 0x7ce <EXI_SET_EDGE+0x184>
				case EXI_INT0_GENERATE_INTERRUPT_AT_RISING_EDGE:
					EXI_INT0_SET_EDGE(EXI_INT1_GENERATE_INTERRUPT_AT_RISING_EDGE);break;
     772:	a5 e5       	ldi	r26, 0x55	; 85
     774:	b0 e0       	ldi	r27, 0x00	; 0
     776:	e5 e5       	ldi	r30, 0x55	; 85
     778:	f0 e0       	ldi	r31, 0x00	; 0
     77a:	80 81       	ld	r24, Z
     77c:	83 60       	ori	r24, 0x03	; 3
     77e:	8c 93       	st	X, r24
     780:	26 c0       	rjmp	.+76     	; 0x7ce <EXI_SET_EDGE+0x184>
				case EXI_INT0_GENERATE_INTERRUPT_AT_FALLING_EDGE:
					EXI_INT0_SET_EDGE(EXI_INT1_GENERATE_INTERRUPT_AT_FALLING_EDGE);break;
     782:	a5 e5       	ldi	r26, 0x55	; 85
     784:	b0 e0       	ldi	r27, 0x00	; 0
     786:	e5 e5       	ldi	r30, 0x55	; 85
     788:	f0 e0       	ldi	r31, 0x00	; 0
     78a:	80 81       	ld	r24, Z
     78c:	82 60       	ori	r24, 0x02	; 2
     78e:	8c 93       	st	X, r24
     790:	1e c0       	rjmp	.+60     	; 0x7ce <EXI_SET_EDGE+0x184>
			}
			break;

		case EXI_INT2:
			switch(interrupt->edge)
     792:	e9 81       	ldd	r30, Y+1	; 0x01
     794:	fa 81       	ldd	r31, Y+2	; 0x02
     796:	81 81       	ldd	r24, Z+1	; 0x01
     798:	28 2f       	mov	r18, r24
     79a:	30 e0       	ldi	r19, 0x00	; 0
     79c:	3c 83       	std	Y+4, r19	; 0x04
     79e:	2b 83       	std	Y+3, r18	; 0x03
     7a0:	8b 81       	ldd	r24, Y+3	; 0x03
     7a2:	9c 81       	ldd	r25, Y+4	; 0x04
     7a4:	00 97       	sbiw	r24, 0x00	; 0
     7a6:	69 f0       	breq	.+26     	; 0x7c2 <EXI_SET_EDGE+0x178>
     7a8:	2b 81       	ldd	r18, Y+3	; 0x03
     7aa:	3c 81       	ldd	r19, Y+4	; 0x04
     7ac:	21 30       	cpi	r18, 0x01	; 1
     7ae:	31 05       	cpc	r19, r1
     7b0:	71 f4       	brne	.+28     	; 0x7ce <EXI_SET_EDGE+0x184>
			{
				case EXI_INT2_GENERATE_INTERRUPT_AT_RISING_EDGE:
					EXI_INT2_SET_EDGE(EXI_INT2_GENERATE_INTERRUPT_AT_RISING_EDGE);break;
     7b2:	a4 e5       	ldi	r26, 0x54	; 84
     7b4:	b0 e0       	ldi	r27, 0x00	; 0
     7b6:	e4 e5       	ldi	r30, 0x54	; 84
     7b8:	f0 e0       	ldi	r31, 0x00	; 0
     7ba:	80 81       	ld	r24, Z
     7bc:	80 64       	ori	r24, 0x40	; 64
     7be:	8c 93       	st	X, r24
     7c0:	06 c0       	rjmp	.+12     	; 0x7ce <EXI_SET_EDGE+0x184>
				case EXI_INT2_GENERATE_INTERRUPT_AT_FALLING_EDGE:
					EXI_INT2_SET_EDGE(EXI_INT2_GENERATE_INTERRUPT_AT_FALLING_EDGE);break;
     7c2:	e4 e5       	ldi	r30, 0x54	; 84
     7c4:	f0 e0       	ldi	r31, 0x00	; 0
     7c6:	a4 e5       	ldi	r26, 0x54	; 84
     7c8:	b0 e0       	ldi	r27, 0x00	; 0
     7ca:	8c 91       	ld	r24, X
     7cc:	80 83       	st	Z, r24
			}
			break;
	}
}
     7ce:	2a 96       	adiw	r28, 0x0a	; 10
     7d0:	0f b6       	in	r0, 0x3f	; 63
     7d2:	f8 94       	cli
     7d4:	de bf       	out	0x3e, r29	; 62
     7d6:	0f be       	out	0x3f, r0	; 63
     7d8:	cd bf       	out	0x3d, r28	; 61
     7da:	cf 91       	pop	r28
     7dc:	df 91       	pop	r29
     7de:	08 95       	ret

000007e0 <__vector_1>:


ISR(INT0_vect)
{
     7e0:	1f 92       	push	r1
     7e2:	0f 92       	push	r0
     7e4:	0f b6       	in	r0, 0x3f	; 63
     7e6:	0f 92       	push	r0
     7e8:	11 24       	eor	r1, r1
     7ea:	2f 93       	push	r18
     7ec:	3f 93       	push	r19
     7ee:	4f 93       	push	r20
     7f0:	5f 93       	push	r21
     7f2:	6f 93       	push	r22
     7f4:	7f 93       	push	r23
     7f6:	8f 93       	push	r24
     7f8:	9f 93       	push	r25
     7fa:	af 93       	push	r26
     7fc:	bf 93       	push	r27
     7fe:	ef 93       	push	r30
     800:	ff 93       	push	r31
     802:	df 93       	push	r29
     804:	cf 93       	push	r28
     806:	cd b7       	in	r28, 0x3d	; 61
     808:	de b7       	in	r29, 0x3e	; 62
	if(INT0_fptr != NULL)
     80a:	80 91 b0 00 	lds	r24, 0x00B0
     80e:	90 91 b1 00 	lds	r25, 0x00B1
     812:	00 97       	sbiw	r24, 0x00	; 0
     814:	29 f0       	breq	.+10     	; 0x820 <__vector_1+0x40>
	{
		INT0_fptr();
     816:	e0 91 b0 00 	lds	r30, 0x00B0
     81a:	f0 91 b1 00 	lds	r31, 0x00B1
     81e:	09 95       	icall
	}
}
     820:	cf 91       	pop	r28
     822:	df 91       	pop	r29
     824:	ff 91       	pop	r31
     826:	ef 91       	pop	r30
     828:	bf 91       	pop	r27
     82a:	af 91       	pop	r26
     82c:	9f 91       	pop	r25
     82e:	8f 91       	pop	r24
     830:	7f 91       	pop	r23
     832:	6f 91       	pop	r22
     834:	5f 91       	pop	r21
     836:	4f 91       	pop	r20
     838:	3f 91       	pop	r19
     83a:	2f 91       	pop	r18
     83c:	0f 90       	pop	r0
     83e:	0f be       	out	0x3f, r0	; 63
     840:	0f 90       	pop	r0
     842:	1f 90       	pop	r1
     844:	18 95       	reti

00000846 <__vector_2>:


ISR(INT1_vect)
{
     846:	1f 92       	push	r1
     848:	0f 92       	push	r0
     84a:	0f b6       	in	r0, 0x3f	; 63
     84c:	0f 92       	push	r0
     84e:	11 24       	eor	r1, r1
     850:	2f 93       	push	r18
     852:	3f 93       	push	r19
     854:	4f 93       	push	r20
     856:	5f 93       	push	r21
     858:	6f 93       	push	r22
     85a:	7f 93       	push	r23
     85c:	8f 93       	push	r24
     85e:	9f 93       	push	r25
     860:	af 93       	push	r26
     862:	bf 93       	push	r27
     864:	ef 93       	push	r30
     866:	ff 93       	push	r31
     868:	df 93       	push	r29
     86a:	cf 93       	push	r28
     86c:	cd b7       	in	r28, 0x3d	; 61
     86e:	de b7       	in	r29, 0x3e	; 62
	if(INT1_fptr != NULL)
     870:	80 91 b2 00 	lds	r24, 0x00B2
     874:	90 91 b3 00 	lds	r25, 0x00B3
     878:	00 97       	sbiw	r24, 0x00	; 0
     87a:	29 f0       	breq	.+10     	; 0x886 <__stack+0x27>
	{
		INT1_fptr();
     87c:	e0 91 b2 00 	lds	r30, 0x00B2
     880:	f0 91 b3 00 	lds	r31, 0x00B3
     884:	09 95       	icall
	}
}
     886:	cf 91       	pop	r28
     888:	df 91       	pop	r29
     88a:	ff 91       	pop	r31
     88c:	ef 91       	pop	r30
     88e:	bf 91       	pop	r27
     890:	af 91       	pop	r26
     892:	9f 91       	pop	r25
     894:	8f 91       	pop	r24
     896:	7f 91       	pop	r23
     898:	6f 91       	pop	r22
     89a:	5f 91       	pop	r21
     89c:	4f 91       	pop	r20
     89e:	3f 91       	pop	r19
     8a0:	2f 91       	pop	r18
     8a2:	0f 90       	pop	r0
     8a4:	0f be       	out	0x3f, r0	; 63
     8a6:	0f 90       	pop	r0
     8a8:	1f 90       	pop	r1
     8aa:	18 95       	reti

000008ac <__vector_3>:


ISR(INT2_vect)
{
     8ac:	1f 92       	push	r1
     8ae:	0f 92       	push	r0
     8b0:	0f b6       	in	r0, 0x3f	; 63
     8b2:	0f 92       	push	r0
     8b4:	11 24       	eor	r1, r1
     8b6:	2f 93       	push	r18
     8b8:	3f 93       	push	r19
     8ba:	4f 93       	push	r20
     8bc:	5f 93       	push	r21
     8be:	6f 93       	push	r22
     8c0:	7f 93       	push	r23
     8c2:	8f 93       	push	r24
     8c4:	9f 93       	push	r25
     8c6:	af 93       	push	r26
     8c8:	bf 93       	push	r27
     8ca:	ef 93       	push	r30
     8cc:	ff 93       	push	r31
     8ce:	df 93       	push	r29
     8d0:	cf 93       	push	r28
     8d2:	cd b7       	in	r28, 0x3d	; 61
     8d4:	de b7       	in	r29, 0x3e	; 62
	if(INT2_fptr != NULL)
     8d6:	80 91 b4 00 	lds	r24, 0x00B4
     8da:	90 91 b5 00 	lds	r25, 0x00B5
     8de:	00 97       	sbiw	r24, 0x00	; 0
     8e0:	29 f0       	breq	.+10     	; 0x8ec <__vector_3+0x40>
	{
		INT2_fptr();
     8e2:	e0 91 b4 00 	lds	r30, 0x00B4
     8e6:	f0 91 b5 00 	lds	r31, 0x00B5
     8ea:	09 95       	icall
	}
}
     8ec:	cf 91       	pop	r28
     8ee:	df 91       	pop	r29
     8f0:	ff 91       	pop	r31
     8f2:	ef 91       	pop	r30
     8f4:	bf 91       	pop	r27
     8f6:	af 91       	pop	r26
     8f8:	9f 91       	pop	r25
     8fa:	8f 91       	pop	r24
     8fc:	7f 91       	pop	r23
     8fe:	6f 91       	pop	r22
     900:	5f 91       	pop	r21
     902:	4f 91       	pop	r20
     904:	3f 91       	pop	r19
     906:	2f 91       	pop	r18
     908:	0f 90       	pop	r0
     90a:	0f be       	out	0x3f, r0	; 63
     90c:	0f 90       	pop	r0
     90e:	1f 90       	pop	r1
     910:	18 95       	reti

00000912 <EXT0_Handeler>:
	.pin =  PIN0,
	.status = LED_OFF
};

void EXT0_Handeler()
{
     912:	df 93       	push	r29
     914:	cf 93       	push	r28
     916:	cd b7       	in	r28, 0x3d	; 61
     918:	de b7       	in	r29, 0x3e	; 62
	Led_Toggle(&led_0);
     91a:	8a e6       	ldi	r24, 0x6A	; 106
     91c:	90 e0       	ldi	r25, 0x00	; 0
     91e:	0e 94 30 07 	call	0xe60	; 0xe60 <Led_Toggle>
}
     922:	cf 91       	pop	r28
     924:	df 91       	pop	r29
     926:	08 95       	ret

00000928 <EXIT_Test>:
	.INT0_fpt = EXT0_Handeler
};


void EXIT_Test()
{
     928:	df 93       	push	r29
     92a:	cf 93       	push	r28
     92c:	cd b7       	in	r28, 0x3d	; 61
     92e:	de b7       	in	r29, 0x3e	; 62

	EXI_interrupt_init(&ext);
     930:	8d e6       	ldi	r24, 0x6D	; 109
     932:	90 e0       	ldi	r25, 0x00	; 0
     934:	0e 94 82 02 	call	0x504	; 0x504 <EXI_interrupt_init>
	EXI_CallBack(&ext);
     938:	8d e6       	ldi	r24, 0x6D	; 109
     93a:	90 e0       	ldi	r25, 0x00	; 0
     93c:	0e 94 a1 02 	call	0x542	; 0x542 <EXI_CallBack>

	Led_Init(&led_0);
     940:	8a e6       	ldi	r24, 0x6A	; 106
     942:	90 e0       	ldi	r25, 0x00	; 0
     944:	0e 94 98 06 	call	0xd30	; 0xd30 <Led_Init>
     948:	ff cf       	rjmp	.-2      	; 0x948 <EXIT_Test+0x20>

0000094a <DIO_pin_dirction_init>:
 * @return Status of the function
 *          (E_OK) : The function done successfully
 *          (E_NOT_OK) : The function has issue to perform this action
 */
Std_ReturnType DIO_pin_dirction_init(const ST_pinCofig_t* pinObject)
{
     94a:	df 93       	push	r29
     94c:	cf 93       	push	r28
     94e:	00 d0       	rcall	.+0      	; 0x950 <DIO_pin_dirction_init+0x6>
     950:	00 d0       	rcall	.+0      	; 0x952 <DIO_pin_dirction_init+0x8>
     952:	0f 92       	push	r0
     954:	cd b7       	in	r28, 0x3d	; 61
     956:	de b7       	in	r29, 0x3e	; 62
     958:	9b 83       	std	Y+3, r25	; 0x03
     95a:	8a 83       	std	Y+2, r24	; 0x02
	Std_ReturnType ret = E_OK;
     95c:	81 e0       	ldi	r24, 0x01	; 1
     95e:	89 83       	std	Y+1, r24	; 0x01
	if(pinObject == NULL)
     960:	8a 81       	ldd	r24, Y+2	; 0x02
     962:	9b 81       	ldd	r25, Y+3	; 0x03
     964:	00 97       	sbiw	r24, 0x00	; 0
     966:	11 f4       	brne	.+4      	; 0x96c <DIO_pin_dirction_init+0x22>
	{
		ret = E_NOT_OK;
     968:	19 82       	std	Y+1, r1	; 0x01
     96a:	69 c0       	rjmp	.+210    	; 0xa3e <DIO_pin_dirction_init+0xf4>
	}
	else
	{
		switch(pinObject->pin_direction)
     96c:	ea 81       	ldd	r30, Y+2	; 0x02
     96e:	fb 81       	ldd	r31, Y+3	; 0x03
     970:	82 81       	ldd	r24, Z+2	; 0x02
     972:	28 2f       	mov	r18, r24
     974:	30 e0       	ldi	r19, 0x00	; 0
     976:	3d 83       	std	Y+5, r19	; 0x05
     978:	2c 83       	std	Y+4, r18	; 0x04
     97a:	8c 81       	ldd	r24, Y+4	; 0x04
     97c:	9d 81       	ldd	r25, Y+5	; 0x05
     97e:	00 97       	sbiw	r24, 0x00	; 0
     980:	31 f0       	breq	.+12     	; 0x98e <DIO_pin_dirction_init+0x44>
     982:	2c 81       	ldd	r18, Y+4	; 0x04
     984:	3d 81       	ldd	r19, Y+5	; 0x05
     986:	21 30       	cpi	r18, 0x01	; 1
     988:	31 05       	cpc	r19, r1
     98a:	61 f1       	breq	.+88     	; 0x9e4 <DIO_pin_dirction_init+0x9a>
     98c:	57 c0       	rjmp	.+174    	; 0xa3c <DIO_pin_dirction_init+0xf2>
		{
			case OUTPUT :
			SET_BIT(*(ddr_regster[pinObject->port]), pinObject->pin);
     98e:	ea 81       	ldd	r30, Y+2	; 0x02
     990:	fb 81       	ldd	r31, Y+3	; 0x03
     992:	80 81       	ld	r24, Z
     994:	88 2f       	mov	r24, r24
     996:	90 e0       	ldi	r25, 0x00	; 0
     998:	88 0f       	add	r24, r24
     99a:	99 1f       	adc	r25, r25
     99c:	fc 01       	movw	r30, r24
     99e:	eb 58       	subi	r30, 0x8B	; 139
     9a0:	ff 4f       	sbci	r31, 0xFF	; 255
     9a2:	a0 81       	ld	r26, Z
     9a4:	b1 81       	ldd	r27, Z+1	; 0x01
     9a6:	ea 81       	ldd	r30, Y+2	; 0x02
     9a8:	fb 81       	ldd	r31, Y+3	; 0x03
     9aa:	80 81       	ld	r24, Z
     9ac:	88 2f       	mov	r24, r24
     9ae:	90 e0       	ldi	r25, 0x00	; 0
     9b0:	88 0f       	add	r24, r24
     9b2:	99 1f       	adc	r25, r25
     9b4:	fc 01       	movw	r30, r24
     9b6:	eb 58       	subi	r30, 0x8B	; 139
     9b8:	ff 4f       	sbci	r31, 0xFF	; 255
     9ba:	01 90       	ld	r0, Z+
     9bc:	f0 81       	ld	r31, Z
     9be:	e0 2d       	mov	r30, r0
     9c0:	80 81       	ld	r24, Z
     9c2:	48 2f       	mov	r20, r24
     9c4:	ea 81       	ldd	r30, Y+2	; 0x02
     9c6:	fb 81       	ldd	r31, Y+3	; 0x03
     9c8:	81 81       	ldd	r24, Z+1	; 0x01
     9ca:	28 2f       	mov	r18, r24
     9cc:	30 e0       	ldi	r19, 0x00	; 0
     9ce:	81 e0       	ldi	r24, 0x01	; 1
     9d0:	90 e0       	ldi	r25, 0x00	; 0
     9d2:	02 2e       	mov	r0, r18
     9d4:	02 c0       	rjmp	.+4      	; 0x9da <DIO_pin_dirction_init+0x90>
     9d6:	88 0f       	add	r24, r24
     9d8:	99 1f       	adc	r25, r25
     9da:	0a 94       	dec	r0
     9dc:	e2 f7       	brpl	.-8      	; 0x9d6 <DIO_pin_dirction_init+0x8c>
     9de:	84 2b       	or	r24, r20
     9e0:	8c 93       	st	X, r24
     9e2:	2d c0       	rjmp	.+90     	; 0xa3e <DIO_pin_dirction_init+0xf4>
			break;

			case INPUT :
			CLR_BIT(*(ddr_regster[pinObject->port]), pinObject->pin);
     9e4:	ea 81       	ldd	r30, Y+2	; 0x02
     9e6:	fb 81       	ldd	r31, Y+3	; 0x03
     9e8:	80 81       	ld	r24, Z
     9ea:	88 2f       	mov	r24, r24
     9ec:	90 e0       	ldi	r25, 0x00	; 0
     9ee:	88 0f       	add	r24, r24
     9f0:	99 1f       	adc	r25, r25
     9f2:	fc 01       	movw	r30, r24
     9f4:	eb 58       	subi	r30, 0x8B	; 139
     9f6:	ff 4f       	sbci	r31, 0xFF	; 255
     9f8:	a0 81       	ld	r26, Z
     9fa:	b1 81       	ldd	r27, Z+1	; 0x01
     9fc:	ea 81       	ldd	r30, Y+2	; 0x02
     9fe:	fb 81       	ldd	r31, Y+3	; 0x03
     a00:	80 81       	ld	r24, Z
     a02:	88 2f       	mov	r24, r24
     a04:	90 e0       	ldi	r25, 0x00	; 0
     a06:	88 0f       	add	r24, r24
     a08:	99 1f       	adc	r25, r25
     a0a:	fc 01       	movw	r30, r24
     a0c:	eb 58       	subi	r30, 0x8B	; 139
     a0e:	ff 4f       	sbci	r31, 0xFF	; 255
     a10:	01 90       	ld	r0, Z+
     a12:	f0 81       	ld	r31, Z
     a14:	e0 2d       	mov	r30, r0
     a16:	80 81       	ld	r24, Z
     a18:	48 2f       	mov	r20, r24
     a1a:	ea 81       	ldd	r30, Y+2	; 0x02
     a1c:	fb 81       	ldd	r31, Y+3	; 0x03
     a1e:	81 81       	ldd	r24, Z+1	; 0x01
     a20:	28 2f       	mov	r18, r24
     a22:	30 e0       	ldi	r19, 0x00	; 0
     a24:	81 e0       	ldi	r24, 0x01	; 1
     a26:	90 e0       	ldi	r25, 0x00	; 0
     a28:	02 2e       	mov	r0, r18
     a2a:	02 c0       	rjmp	.+4      	; 0xa30 <DIO_pin_dirction_init+0xe6>
     a2c:	88 0f       	add	r24, r24
     a2e:	99 1f       	adc	r25, r25
     a30:	0a 94       	dec	r0
     a32:	e2 f7       	brpl	.-8      	; 0xa2c <DIO_pin_dirction_init+0xe2>
     a34:	80 95       	com	r24
     a36:	84 23       	and	r24, r20
     a38:	8c 93       	st	X, r24
     a3a:	01 c0       	rjmp	.+2      	; 0xa3e <DIO_pin_dirction_init+0xf4>
			break;

			default:
			ret = E_NOT_OK;
     a3c:	19 82       	std	Y+1, r1	; 0x01
		}
	}
	return ret;
     a3e:	89 81       	ldd	r24, Y+1	; 0x01
}
     a40:	0f 90       	pop	r0
     a42:	0f 90       	pop	r0
     a44:	0f 90       	pop	r0
     a46:	0f 90       	pop	r0
     a48:	0f 90       	pop	r0
     a4a:	cf 91       	pop	r28
     a4c:	df 91       	pop	r29
     a4e:	08 95       	ret

00000a50 <DIO_get_pin_direction>:
 * @return Status of the function
 *          (E_OK) : The function done successfully
 *          (E_NOT_OK) : The function has issue to perform this action
 */
Std_ReturnType DIO_get_pin_direction(const ST_pinCofig_t* pinObject, EN_pinDirection_t* dirction)
{
     a50:	df 93       	push	r29
     a52:	cf 93       	push	r28
     a54:	00 d0       	rcall	.+0      	; 0xa56 <DIO_get_pin_direction+0x6>
     a56:	00 d0       	rcall	.+0      	; 0xa58 <DIO_get_pin_direction+0x8>
     a58:	0f 92       	push	r0
     a5a:	cd b7       	in	r28, 0x3d	; 61
     a5c:	de b7       	in	r29, 0x3e	; 62
     a5e:	9b 83       	std	Y+3, r25	; 0x03
     a60:	8a 83       	std	Y+2, r24	; 0x02
     a62:	7d 83       	std	Y+5, r23	; 0x05
     a64:	6c 83       	std	Y+4, r22	; 0x04
	Std_ReturnType ret = E_OK;
     a66:	81 e0       	ldi	r24, 0x01	; 1
     a68:	89 83       	std	Y+1, r24	; 0x01
	if(pinObject == NULL)
     a6a:	8a 81       	ldd	r24, Y+2	; 0x02
     a6c:	9b 81       	ldd	r25, Y+3	; 0x03
     a6e:	00 97       	sbiw	r24, 0x00	; 0
     a70:	11 f4       	brne	.+4      	; 0xa76 <DIO_get_pin_direction+0x26>
	{
		ret = E_NOT_OK;
     a72:	19 82       	std	Y+1, r1	; 0x01
     a74:	20 c0       	rjmp	.+64     	; 0xab6 <DIO_get_pin_direction+0x66>
	}
	else
	{
		*dirction = READ_BIT(*pin_regster[pinObject->port], pinObject->pin);
     a76:	ea 81       	ldd	r30, Y+2	; 0x02
     a78:	fb 81       	ldd	r31, Y+3	; 0x03
     a7a:	80 81       	ld	r24, Z
     a7c:	88 2f       	mov	r24, r24
     a7e:	90 e0       	ldi	r25, 0x00	; 0
     a80:	88 0f       	add	r24, r24
     a82:	99 1f       	adc	r25, r25
     a84:	fc 01       	movw	r30, r24
     a86:	eb 57       	subi	r30, 0x7B	; 123
     a88:	ff 4f       	sbci	r31, 0xFF	; 255
     a8a:	01 90       	ld	r0, Z+
     a8c:	f0 81       	ld	r31, Z
     a8e:	e0 2d       	mov	r30, r0
     a90:	80 81       	ld	r24, Z
     a92:	28 2f       	mov	r18, r24
     a94:	30 e0       	ldi	r19, 0x00	; 0
     a96:	ea 81       	ldd	r30, Y+2	; 0x02
     a98:	fb 81       	ldd	r31, Y+3	; 0x03
     a9a:	81 81       	ldd	r24, Z+1	; 0x01
     a9c:	88 2f       	mov	r24, r24
     a9e:	90 e0       	ldi	r25, 0x00	; 0
     aa0:	a9 01       	movw	r20, r18
     aa2:	02 c0       	rjmp	.+4      	; 0xaa8 <DIO_get_pin_direction+0x58>
     aa4:	55 95       	asr	r21
     aa6:	47 95       	ror	r20
     aa8:	8a 95       	dec	r24
     aaa:	e2 f7       	brpl	.-8      	; 0xaa4 <DIO_get_pin_direction+0x54>
     aac:	ca 01       	movw	r24, r20
     aae:	81 70       	andi	r24, 0x01	; 1
     ab0:	ec 81       	ldd	r30, Y+4	; 0x04
     ab2:	fd 81       	ldd	r31, Y+5	; 0x05
     ab4:	80 83       	st	Z, r24
	}
	return ret;
     ab6:	89 81       	ldd	r24, Y+1	; 0x01
}
     ab8:	0f 90       	pop	r0
     aba:	0f 90       	pop	r0
     abc:	0f 90       	pop	r0
     abe:	0f 90       	pop	r0
     ac0:	0f 90       	pop	r0
     ac2:	cf 91       	pop	r28
     ac4:	df 91       	pop	r29
     ac6:	08 95       	ret

00000ac8 <DIO_write_logic>:
 * @return Status of the function
 *          (E_OK) : The function done successfully
 *          (E_NOT_OK) : The function has issue to perform this action
 */
Std_ReturnType DIO_write_logic(const ST_pinCofig_t* pinObject, EN_logic_t logic)
{
     ac8:	df 93       	push	r29
     aca:	cf 93       	push	r28
     acc:	00 d0       	rcall	.+0      	; 0xace <DIO_write_logic+0x6>
     ace:	00 d0       	rcall	.+0      	; 0xad0 <DIO_write_logic+0x8>
     ad0:	00 d0       	rcall	.+0      	; 0xad2 <DIO_write_logic+0xa>
     ad2:	cd b7       	in	r28, 0x3d	; 61
     ad4:	de b7       	in	r29, 0x3e	; 62
     ad6:	9b 83       	std	Y+3, r25	; 0x03
     ad8:	8a 83       	std	Y+2, r24	; 0x02
     ada:	6c 83       	std	Y+4, r22	; 0x04
	Std_ReturnType ret = E_OK;
     adc:	81 e0       	ldi	r24, 0x01	; 1
     ade:	89 83       	std	Y+1, r24	; 0x01
	if(pinObject == NULL)
     ae0:	8a 81       	ldd	r24, Y+2	; 0x02
     ae2:	9b 81       	ldd	r25, Y+3	; 0x03
     ae4:	00 97       	sbiw	r24, 0x00	; 0
     ae6:	11 f4       	brne	.+4      	; 0xaec <DIO_write_logic+0x24>
	{
		ret = E_NOT_OK;
     ae8:	19 82       	std	Y+1, r1	; 0x01
     aea:	67 c0       	rjmp	.+206    	; 0xbba <DIO_write_logic+0xf2>
	}
	else
	{
		switch(logic)
     aec:	8c 81       	ldd	r24, Y+4	; 0x04
     aee:	28 2f       	mov	r18, r24
     af0:	30 e0       	ldi	r19, 0x00	; 0
     af2:	3e 83       	std	Y+6, r19	; 0x06
     af4:	2d 83       	std	Y+5, r18	; 0x05
     af6:	8d 81       	ldd	r24, Y+5	; 0x05
     af8:	9e 81       	ldd	r25, Y+6	; 0x06
     afa:	00 97       	sbiw	r24, 0x00	; 0
     afc:	89 f1       	breq	.+98     	; 0xb60 <DIO_write_logic+0x98>
     afe:	2d 81       	ldd	r18, Y+5	; 0x05
     b00:	3e 81       	ldd	r19, Y+6	; 0x06
     b02:	21 30       	cpi	r18, 0x01	; 1
     b04:	31 05       	cpc	r19, r1
     b06:	09 f0       	breq	.+2      	; 0xb0a <DIO_write_logic+0x42>
     b08:	57 c0       	rjmp	.+174    	; 0xbb8 <DIO_write_logic+0xf0>
		{
			case DIO_HIGH :
				SET_BIT(*(port_regster[pinObject->port]), pinObject->pin);
     b0a:	ea 81       	ldd	r30, Y+2	; 0x02
     b0c:	fb 81       	ldd	r31, Y+3	; 0x03
     b0e:	80 81       	ld	r24, Z
     b10:	88 2f       	mov	r24, r24
     b12:	90 e0       	ldi	r25, 0x00	; 0
     b14:	88 0f       	add	r24, r24
     b16:	99 1f       	adc	r25, r25
     b18:	fc 01       	movw	r30, r24
     b1a:	e3 58       	subi	r30, 0x83	; 131
     b1c:	ff 4f       	sbci	r31, 0xFF	; 255
     b1e:	a0 81       	ld	r26, Z
     b20:	b1 81       	ldd	r27, Z+1	; 0x01
     b22:	ea 81       	ldd	r30, Y+2	; 0x02
     b24:	fb 81       	ldd	r31, Y+3	; 0x03
     b26:	80 81       	ld	r24, Z
     b28:	88 2f       	mov	r24, r24
     b2a:	90 e0       	ldi	r25, 0x00	; 0
     b2c:	88 0f       	add	r24, r24
     b2e:	99 1f       	adc	r25, r25
     b30:	fc 01       	movw	r30, r24
     b32:	e3 58       	subi	r30, 0x83	; 131
     b34:	ff 4f       	sbci	r31, 0xFF	; 255
     b36:	01 90       	ld	r0, Z+
     b38:	f0 81       	ld	r31, Z
     b3a:	e0 2d       	mov	r30, r0
     b3c:	80 81       	ld	r24, Z
     b3e:	48 2f       	mov	r20, r24
     b40:	ea 81       	ldd	r30, Y+2	; 0x02
     b42:	fb 81       	ldd	r31, Y+3	; 0x03
     b44:	81 81       	ldd	r24, Z+1	; 0x01
     b46:	28 2f       	mov	r18, r24
     b48:	30 e0       	ldi	r19, 0x00	; 0
     b4a:	81 e0       	ldi	r24, 0x01	; 1
     b4c:	90 e0       	ldi	r25, 0x00	; 0
     b4e:	02 2e       	mov	r0, r18
     b50:	02 c0       	rjmp	.+4      	; 0xb56 <DIO_write_logic+0x8e>
     b52:	88 0f       	add	r24, r24
     b54:	99 1f       	adc	r25, r25
     b56:	0a 94       	dec	r0
     b58:	e2 f7       	brpl	.-8      	; 0xb52 <DIO_write_logic+0x8a>
     b5a:	84 2b       	or	r24, r20
     b5c:	8c 93       	st	X, r24
     b5e:	2d c0       	rjmp	.+90     	; 0xbba <DIO_write_logic+0xf2>
				break;

			case DIO_LOW :
				CLR_BIT(*(port_regster[pinObject->port]), pinObject->pin);
     b60:	ea 81       	ldd	r30, Y+2	; 0x02
     b62:	fb 81       	ldd	r31, Y+3	; 0x03
     b64:	80 81       	ld	r24, Z
     b66:	88 2f       	mov	r24, r24
     b68:	90 e0       	ldi	r25, 0x00	; 0
     b6a:	88 0f       	add	r24, r24
     b6c:	99 1f       	adc	r25, r25
     b6e:	fc 01       	movw	r30, r24
     b70:	e3 58       	subi	r30, 0x83	; 131
     b72:	ff 4f       	sbci	r31, 0xFF	; 255
     b74:	a0 81       	ld	r26, Z
     b76:	b1 81       	ldd	r27, Z+1	; 0x01
     b78:	ea 81       	ldd	r30, Y+2	; 0x02
     b7a:	fb 81       	ldd	r31, Y+3	; 0x03
     b7c:	80 81       	ld	r24, Z
     b7e:	88 2f       	mov	r24, r24
     b80:	90 e0       	ldi	r25, 0x00	; 0
     b82:	88 0f       	add	r24, r24
     b84:	99 1f       	adc	r25, r25
     b86:	fc 01       	movw	r30, r24
     b88:	e3 58       	subi	r30, 0x83	; 131
     b8a:	ff 4f       	sbci	r31, 0xFF	; 255
     b8c:	01 90       	ld	r0, Z+
     b8e:	f0 81       	ld	r31, Z
     b90:	e0 2d       	mov	r30, r0
     b92:	80 81       	ld	r24, Z
     b94:	48 2f       	mov	r20, r24
     b96:	ea 81       	ldd	r30, Y+2	; 0x02
     b98:	fb 81       	ldd	r31, Y+3	; 0x03
     b9a:	81 81       	ldd	r24, Z+1	; 0x01
     b9c:	28 2f       	mov	r18, r24
     b9e:	30 e0       	ldi	r19, 0x00	; 0
     ba0:	81 e0       	ldi	r24, 0x01	; 1
     ba2:	90 e0       	ldi	r25, 0x00	; 0
     ba4:	02 2e       	mov	r0, r18
     ba6:	02 c0       	rjmp	.+4      	; 0xbac <DIO_write_logic+0xe4>
     ba8:	88 0f       	add	r24, r24
     baa:	99 1f       	adc	r25, r25
     bac:	0a 94       	dec	r0
     bae:	e2 f7       	brpl	.-8      	; 0xba8 <DIO_write_logic+0xe0>
     bb0:	80 95       	com	r24
     bb2:	84 23       	and	r24, r20
     bb4:	8c 93       	st	X, r24
     bb6:	01 c0       	rjmp	.+2      	; 0xbba <DIO_write_logic+0xf2>
				break;

			default :
				ret = E_NOT_OK;
     bb8:	19 82       	std	Y+1, r1	; 0x01
		}
	}
	return ret;
     bba:	89 81       	ldd	r24, Y+1	; 0x01
}
     bbc:	26 96       	adiw	r28, 0x06	; 6
     bbe:	0f b6       	in	r0, 0x3f	; 63
     bc0:	f8 94       	cli
     bc2:	de bf       	out	0x3e, r29	; 62
     bc4:	0f be       	out	0x3f, r0	; 63
     bc6:	cd bf       	out	0x3d, r28	; 61
     bc8:	cf 91       	pop	r28
     bca:	df 91       	pop	r29
     bcc:	08 95       	ret

00000bce <DIO_read_logic>:
 * @return Status of the function
 *          (E_OK) : The function done successfully
 *          (E_NOT_OK) : The function has issue to perform this action
 */
Std_ReturnType DIO_read_logic(const ST_pinCofig_t* pinObject, EN_logic_t* logic)
{
     bce:	df 93       	push	r29
     bd0:	cf 93       	push	r28
     bd2:	00 d0       	rcall	.+0      	; 0xbd4 <DIO_read_logic+0x6>
     bd4:	00 d0       	rcall	.+0      	; 0xbd6 <DIO_read_logic+0x8>
     bd6:	0f 92       	push	r0
     bd8:	cd b7       	in	r28, 0x3d	; 61
     bda:	de b7       	in	r29, 0x3e	; 62
     bdc:	9b 83       	std	Y+3, r25	; 0x03
     bde:	8a 83       	std	Y+2, r24	; 0x02
     be0:	7d 83       	std	Y+5, r23	; 0x05
     be2:	6c 83       	std	Y+4, r22	; 0x04
	Std_ReturnType ret = E_OK;
     be4:	81 e0       	ldi	r24, 0x01	; 1
     be6:	89 83       	std	Y+1, r24	; 0x01
	if(pinObject == NULL)
     be8:	8a 81       	ldd	r24, Y+2	; 0x02
     bea:	9b 81       	ldd	r25, Y+3	; 0x03
     bec:	00 97       	sbiw	r24, 0x00	; 0
     bee:	11 f4       	brne	.+4      	; 0xbf4 <DIO_read_logic+0x26>
	{
		ret = E_NOT_OK;
     bf0:	19 82       	std	Y+1, r1	; 0x01
     bf2:	20 c0       	rjmp	.+64     	; 0xc34 <DIO_read_logic+0x66>
	}
	else
	{
		*logic = READ_BIT(*pin_regster[pinObject->port], pinObject->pin);
     bf4:	ea 81       	ldd	r30, Y+2	; 0x02
     bf6:	fb 81       	ldd	r31, Y+3	; 0x03
     bf8:	80 81       	ld	r24, Z
     bfa:	88 2f       	mov	r24, r24
     bfc:	90 e0       	ldi	r25, 0x00	; 0
     bfe:	88 0f       	add	r24, r24
     c00:	99 1f       	adc	r25, r25
     c02:	fc 01       	movw	r30, r24
     c04:	eb 57       	subi	r30, 0x7B	; 123
     c06:	ff 4f       	sbci	r31, 0xFF	; 255
     c08:	01 90       	ld	r0, Z+
     c0a:	f0 81       	ld	r31, Z
     c0c:	e0 2d       	mov	r30, r0
     c0e:	80 81       	ld	r24, Z
     c10:	28 2f       	mov	r18, r24
     c12:	30 e0       	ldi	r19, 0x00	; 0
     c14:	ea 81       	ldd	r30, Y+2	; 0x02
     c16:	fb 81       	ldd	r31, Y+3	; 0x03
     c18:	81 81       	ldd	r24, Z+1	; 0x01
     c1a:	88 2f       	mov	r24, r24
     c1c:	90 e0       	ldi	r25, 0x00	; 0
     c1e:	a9 01       	movw	r20, r18
     c20:	02 c0       	rjmp	.+4      	; 0xc26 <DIO_read_logic+0x58>
     c22:	55 95       	asr	r21
     c24:	47 95       	ror	r20
     c26:	8a 95       	dec	r24
     c28:	e2 f7       	brpl	.-8      	; 0xc22 <DIO_read_logic+0x54>
     c2a:	ca 01       	movw	r24, r20
     c2c:	81 70       	andi	r24, 0x01	; 1
     c2e:	ec 81       	ldd	r30, Y+4	; 0x04
     c30:	fd 81       	ldd	r31, Y+5	; 0x05
     c32:	80 83       	st	Z, r24
	}
	return ret;
     c34:	89 81       	ldd	r24, Y+1	; 0x01
}
     c36:	0f 90       	pop	r0
     c38:	0f 90       	pop	r0
     c3a:	0f 90       	pop	r0
     c3c:	0f 90       	pop	r0
     c3e:	0f 90       	pop	r0
     c40:	cf 91       	pop	r28
     c42:	df 91       	pop	r29
     c44:	08 95       	ret

00000c46 <DIO_pin_toggle>:
 * @return Status of the function
 *          (E_OK) : The function done successfully
 *          (E_NOT_OK) : The function has issue to perform this action
 */
Std_ReturnType DIO_pin_toggle(const ST_pinCofig_t* pinObject)
{
     c46:	df 93       	push	r29
     c48:	cf 93       	push	r28
     c4a:	00 d0       	rcall	.+0      	; 0xc4c <DIO_pin_toggle+0x6>
     c4c:	0f 92       	push	r0
     c4e:	cd b7       	in	r28, 0x3d	; 61
     c50:	de b7       	in	r29, 0x3e	; 62
     c52:	9b 83       	std	Y+3, r25	; 0x03
     c54:	8a 83       	std	Y+2, r24	; 0x02
	Std_ReturnType ret = E_OK;
     c56:	81 e0       	ldi	r24, 0x01	; 1
     c58:	89 83       	std	Y+1, r24	; 0x01
	if(pinObject == NULL)
     c5a:	8a 81       	ldd	r24, Y+2	; 0x02
     c5c:	9b 81       	ldd	r25, Y+3	; 0x03
     c5e:	00 97       	sbiw	r24, 0x00	; 0
     c60:	11 f4       	brne	.+4      	; 0xc66 <DIO_pin_toggle+0x20>
	{
		ret = E_NOT_OK;
     c62:	19 82       	std	Y+1, r1	; 0x01
     c64:	2a c0       	rjmp	.+84     	; 0xcba <DIO_pin_toggle+0x74>
	}
	else
	{
		TOGGLE_BIT(*port_regster[pinObject->port], pinObject->pin);
     c66:	ea 81       	ldd	r30, Y+2	; 0x02
     c68:	fb 81       	ldd	r31, Y+3	; 0x03
     c6a:	80 81       	ld	r24, Z
     c6c:	88 2f       	mov	r24, r24
     c6e:	90 e0       	ldi	r25, 0x00	; 0
     c70:	88 0f       	add	r24, r24
     c72:	99 1f       	adc	r25, r25
     c74:	fc 01       	movw	r30, r24
     c76:	e3 58       	subi	r30, 0x83	; 131
     c78:	ff 4f       	sbci	r31, 0xFF	; 255
     c7a:	a0 81       	ld	r26, Z
     c7c:	b1 81       	ldd	r27, Z+1	; 0x01
     c7e:	ea 81       	ldd	r30, Y+2	; 0x02
     c80:	fb 81       	ldd	r31, Y+3	; 0x03
     c82:	80 81       	ld	r24, Z
     c84:	88 2f       	mov	r24, r24
     c86:	90 e0       	ldi	r25, 0x00	; 0
     c88:	88 0f       	add	r24, r24
     c8a:	99 1f       	adc	r25, r25
     c8c:	fc 01       	movw	r30, r24
     c8e:	e3 58       	subi	r30, 0x83	; 131
     c90:	ff 4f       	sbci	r31, 0xFF	; 255
     c92:	01 90       	ld	r0, Z+
     c94:	f0 81       	ld	r31, Z
     c96:	e0 2d       	mov	r30, r0
     c98:	80 81       	ld	r24, Z
     c9a:	48 2f       	mov	r20, r24
     c9c:	ea 81       	ldd	r30, Y+2	; 0x02
     c9e:	fb 81       	ldd	r31, Y+3	; 0x03
     ca0:	81 81       	ldd	r24, Z+1	; 0x01
     ca2:	28 2f       	mov	r18, r24
     ca4:	30 e0       	ldi	r19, 0x00	; 0
     ca6:	81 e0       	ldi	r24, 0x01	; 1
     ca8:	90 e0       	ldi	r25, 0x00	; 0
     caa:	02 2e       	mov	r0, r18
     cac:	02 c0       	rjmp	.+4      	; 0xcb2 <DIO_pin_toggle+0x6c>
     cae:	88 0f       	add	r24, r24
     cb0:	99 1f       	adc	r25, r25
     cb2:	0a 94       	dec	r0
     cb4:	e2 f7       	brpl	.-8      	; 0xcae <DIO_pin_toggle+0x68>
     cb6:	84 27       	eor	r24, r20
     cb8:	8c 93       	st	X, r24
	}
	return ret;
     cba:	89 81       	ldd	r24, Y+1	; 0x01
}
     cbc:	0f 90       	pop	r0
     cbe:	0f 90       	pop	r0
     cc0:	0f 90       	pop	r0
     cc2:	cf 91       	pop	r28
     cc4:	df 91       	pop	r29
     cc6:	08 95       	ret

00000cc8 <DIO_pin_init>:
 * @return Status of the function
 *          (E_OK) : The function done successfully
 *          (E_NOT_OK) : The function has issue to perform this action
 */
Std_ReturnType DIO_pin_init(const ST_pinCofig_t* pinObject)
{
     cc8:	df 93       	push	r29
     cca:	cf 93       	push	r28
     ccc:	00 d0       	rcall	.+0      	; 0xcce <DIO_pin_init+0x6>
     cce:	0f 92       	push	r0
     cd0:	cd b7       	in	r28, 0x3d	; 61
     cd2:	de b7       	in	r29, 0x3e	; 62
     cd4:	9b 83       	std	Y+3, r25	; 0x03
     cd6:	8a 83       	std	Y+2, r24	; 0x02
	Std_ReturnType ret = E_OK;
     cd8:	81 e0       	ldi	r24, 0x01	; 1
     cda:	89 83       	std	Y+1, r24	; 0x01
	if(pinObject == NULL)
     cdc:	8a 81       	ldd	r24, Y+2	; 0x02
     cde:	9b 81       	ldd	r25, Y+3	; 0x03
     ce0:	00 97       	sbiw	r24, 0x00	; 0
     ce2:	11 f4       	brne	.+4      	; 0xce8 <DIO_pin_init+0x20>
	{
		ret = E_NOT_OK;
     ce4:	19 82       	std	Y+1, r1	; 0x01
     ce6:	0e c0       	rjmp	.+28     	; 0xd04 <DIO_pin_init+0x3c>
	}
	else
	{
		ret = DIO_pin_dirction_init(pinObject);
     ce8:	8a 81       	ldd	r24, Y+2	; 0x02
     cea:	9b 81       	ldd	r25, Y+3	; 0x03
     cec:	0e 94 a5 04 	call	0x94a	; 0x94a <DIO_pin_dirction_init>
     cf0:	89 83       	std	Y+1, r24	; 0x01
		ret = DIO_write_logic(pinObject, pinObject->pin_logic);
     cf2:	ea 81       	ldd	r30, Y+2	; 0x02
     cf4:	fb 81       	ldd	r31, Y+3	; 0x03
     cf6:	23 81       	ldd	r18, Z+3	; 0x03
     cf8:	8a 81       	ldd	r24, Y+2	; 0x02
     cfa:	9b 81       	ldd	r25, Y+3	; 0x03
     cfc:	62 2f       	mov	r22, r18
     cfe:	0e 94 64 05 	call	0xac8	; 0xac8 <DIO_write_logic>
     d02:	89 83       	std	Y+1, r24	; 0x01
	}
	return ret;
     d04:	89 81       	ldd	r24, Y+1	; 0x01
}
     d06:	0f 90       	pop	r0
     d08:	0f 90       	pop	r0
     d0a:	0f 90       	pop	r0
     d0c:	cf 91       	pop	r28
     d0e:	df 91       	pop	r29
     d10:	08 95       	ret

00000d12 <dioTest>:
	.pin_logic = DIO_HIGH,
	.pin_direction = OUTPUT
};

void dioTest()
{
     d12:	df 93       	push	r29
     d14:	cf 93       	push	r28
     d16:	cd b7       	in	r28, 0x3d	; 61
     d18:	de b7       	in	r29, 0x3e	; 62
	DIO_pin_init(&pin1);
     d1a:	8d e8       	ldi	r24, 0x8D	; 141
     d1c:	90 e0       	ldi	r25, 0x00	; 0
     d1e:	0e 94 64 06 	call	0xcc8	; 0xcc8 <DIO_pin_init>
	DIO_pin_toggle(&pin1);
     d22:	8d e8       	ldi	r24, 0x8D	; 141
     d24:	90 e0       	ldi	r25, 0x00	; 0
     d26:	0e 94 23 06 	call	0xc46	; 0xc46 <DIO_pin_toggle>
}
     d2a:	cf 91       	pop	r28
     d2c:	df 91       	pop	r29
     d2e:	08 95       	ret

00000d30 <Led_Init>:
 */

#include "led.h"

Std_ReturnType Led_Init(const ST_led_t* led)
{
     d30:	df 93       	push	r29
     d32:	cf 93       	push	r28
     d34:	cd b7       	in	r28, 0x3d	; 61
     d36:	de b7       	in	r29, 0x3e	; 62
     d38:	27 97       	sbiw	r28, 0x07	; 7
     d3a:	0f b6       	in	r0, 0x3f	; 63
     d3c:	f8 94       	cli
     d3e:	de bf       	out	0x3e, r29	; 62
     d40:	0f be       	out	0x3f, r0	; 63
     d42:	cd bf       	out	0x3d, r28	; 61
     d44:	9f 83       	std	Y+7, r25	; 0x07
     d46:	8e 83       	std	Y+6, r24	; 0x06
	Std_ReturnType ret = E_OK;
     d48:	81 e0       	ldi	r24, 0x01	; 1
     d4a:	89 83       	std	Y+1, r24	; 0x01
	if(led == NULL)
     d4c:	8e 81       	ldd	r24, Y+6	; 0x06
     d4e:	9f 81       	ldd	r25, Y+7	; 0x07
     d50:	00 97       	sbiw	r24, 0x00	; 0
     d52:	11 f4       	brne	.+4      	; 0xd58 <Led_Init+0x28>
	{
		ret = E_NOT_OK;
     d54:	19 82       	std	Y+1, r1	; 0x01
     d56:	18 c0       	rjmp	.+48     	; 0xd88 <Led_Init+0x58>
		{
			.port = led->port,
			.pin = led->pin,
			.pin_logic = led->status,
			.pin_direction = OUTPUT
		};
     d58:	ee 81       	ldd	r30, Y+6	; 0x06
     d5a:	ff 81       	ldd	r31, Y+7	; 0x07
     d5c:	80 81       	ld	r24, Z
     d5e:	ee 81       	ldd	r30, Y+6	; 0x06
     d60:	ff 81       	ldd	r31, Y+7	; 0x07
     d62:	91 81       	ldd	r25, Z+1	; 0x01
     d64:	ee 81       	ldd	r30, Y+6	; 0x06
     d66:	ff 81       	ldd	r31, Y+7	; 0x07
     d68:	22 81       	ldd	r18, Z+2	; 0x02
     d6a:	8a 83       	std	Y+2, r24	; 0x02
     d6c:	9b 83       	std	Y+3, r25	; 0x03
     d6e:	1c 82       	std	Y+4, r1	; 0x04
     d70:	2d 83       	std	Y+5, r18	; 0x05
		ret = DIO_pin_dirction_init(&led_1);
     d72:	ce 01       	movw	r24, r28
     d74:	02 96       	adiw	r24, 0x02	; 2
     d76:	0e 94 a5 04 	call	0x94a	; 0x94a <DIO_pin_dirction_init>
     d7a:	89 83       	std	Y+1, r24	; 0x01
		ret = DIO_write_logic(&led_1, DIO_LOW);
     d7c:	ce 01       	movw	r24, r28
     d7e:	02 96       	adiw	r24, 0x02	; 2
     d80:	60 e0       	ldi	r22, 0x00	; 0
     d82:	0e 94 64 05 	call	0xac8	; 0xac8 <DIO_write_logic>
     d86:	89 83       	std	Y+1, r24	; 0x01
	}
	return ret;
     d88:	89 81       	ldd	r24, Y+1	; 0x01
}
     d8a:	27 96       	adiw	r28, 0x07	; 7
     d8c:	0f b6       	in	r0, 0x3f	; 63
     d8e:	f8 94       	cli
     d90:	de bf       	out	0x3e, r29	; 62
     d92:	0f be       	out	0x3f, r0	; 63
     d94:	cd bf       	out	0x3d, r28	; 61
     d96:	cf 91       	pop	r28
     d98:	df 91       	pop	r29
     d9a:	08 95       	ret

00000d9c <Led_Turn_On>:

Std_ReturnType Led_Turn_On(const ST_led_t* led)
{
     d9c:	df 93       	push	r29
     d9e:	cf 93       	push	r28
     da0:	cd b7       	in	r28, 0x3d	; 61
     da2:	de b7       	in	r29, 0x3e	; 62
     da4:	27 97       	sbiw	r28, 0x07	; 7
     da6:	0f b6       	in	r0, 0x3f	; 63
     da8:	f8 94       	cli
     daa:	de bf       	out	0x3e, r29	; 62
     dac:	0f be       	out	0x3f, r0	; 63
     dae:	cd bf       	out	0x3d, r28	; 61
     db0:	9f 83       	std	Y+7, r25	; 0x07
     db2:	8e 83       	std	Y+6, r24	; 0x06
	Std_ReturnType ret = E_OK;
     db4:	81 e0       	ldi	r24, 0x01	; 1
     db6:	89 83       	std	Y+1, r24	; 0x01
	if(led == NULL)
     db8:	8e 81       	ldd	r24, Y+6	; 0x06
     dba:	9f 81       	ldd	r25, Y+7	; 0x07
     dbc:	00 97       	sbiw	r24, 0x00	; 0
     dbe:	11 f4       	brne	.+4      	; 0xdc4 <Led_Turn_On+0x28>
	{
		ret = E_NOT_OK;
     dc0:	19 82       	std	Y+1, r1	; 0x01
     dc2:	13 c0       	rjmp	.+38     	; 0xdea <Led_Turn_On+0x4e>
		{
			.port = led->port,
			.pin = led->pin,
			.pin_logic = led->status,
			.pin_direction = OUTPUT
		};
     dc4:	ee 81       	ldd	r30, Y+6	; 0x06
     dc6:	ff 81       	ldd	r31, Y+7	; 0x07
     dc8:	80 81       	ld	r24, Z
     dca:	ee 81       	ldd	r30, Y+6	; 0x06
     dcc:	ff 81       	ldd	r31, Y+7	; 0x07
     dce:	91 81       	ldd	r25, Z+1	; 0x01
     dd0:	ee 81       	ldd	r30, Y+6	; 0x06
     dd2:	ff 81       	ldd	r31, Y+7	; 0x07
     dd4:	22 81       	ldd	r18, Z+2	; 0x02
     dd6:	8a 83       	std	Y+2, r24	; 0x02
     dd8:	9b 83       	std	Y+3, r25	; 0x03
     dda:	1c 82       	std	Y+4, r1	; 0x04
     ddc:	2d 83       	std	Y+5, r18	; 0x05
		ret = DIO_write_logic(&led_1, DIO_HIGH);
     dde:	ce 01       	movw	r24, r28
     de0:	02 96       	adiw	r24, 0x02	; 2
     de2:	61 e0       	ldi	r22, 0x01	; 1
     de4:	0e 94 64 05 	call	0xac8	; 0xac8 <DIO_write_logic>
     de8:	89 83       	std	Y+1, r24	; 0x01
	}
	return ret;
     dea:	89 81       	ldd	r24, Y+1	; 0x01
}
     dec:	27 96       	adiw	r28, 0x07	; 7
     dee:	0f b6       	in	r0, 0x3f	; 63
     df0:	f8 94       	cli
     df2:	de bf       	out	0x3e, r29	; 62
     df4:	0f be       	out	0x3f, r0	; 63
     df6:	cd bf       	out	0x3d, r28	; 61
     df8:	cf 91       	pop	r28
     dfa:	df 91       	pop	r29
     dfc:	08 95       	ret

00000dfe <Led_Turn_Off>:

Std_ReturnType Led_Turn_Off(const ST_led_t* led)
{
     dfe:	df 93       	push	r29
     e00:	cf 93       	push	r28
     e02:	cd b7       	in	r28, 0x3d	; 61
     e04:	de b7       	in	r29, 0x3e	; 62
     e06:	27 97       	sbiw	r28, 0x07	; 7
     e08:	0f b6       	in	r0, 0x3f	; 63
     e0a:	f8 94       	cli
     e0c:	de bf       	out	0x3e, r29	; 62
     e0e:	0f be       	out	0x3f, r0	; 63
     e10:	cd bf       	out	0x3d, r28	; 61
     e12:	9f 83       	std	Y+7, r25	; 0x07
     e14:	8e 83       	std	Y+6, r24	; 0x06
	Std_ReturnType ret = E_OK;
     e16:	81 e0       	ldi	r24, 0x01	; 1
     e18:	89 83       	std	Y+1, r24	; 0x01
	if(led == NULL)
     e1a:	8e 81       	ldd	r24, Y+6	; 0x06
     e1c:	9f 81       	ldd	r25, Y+7	; 0x07
     e1e:	00 97       	sbiw	r24, 0x00	; 0
     e20:	11 f4       	brne	.+4      	; 0xe26 <Led_Turn_Off+0x28>
	{
		ret = E_NOT_OK;
     e22:	19 82       	std	Y+1, r1	; 0x01
     e24:	13 c0       	rjmp	.+38     	; 0xe4c <Led_Turn_Off+0x4e>
		{
			.port = led->port,
			.pin = led->pin,
			.pin_logic = led->status,
			.pin_direction = OUTPUT
		};
     e26:	ee 81       	ldd	r30, Y+6	; 0x06
     e28:	ff 81       	ldd	r31, Y+7	; 0x07
     e2a:	80 81       	ld	r24, Z
     e2c:	ee 81       	ldd	r30, Y+6	; 0x06
     e2e:	ff 81       	ldd	r31, Y+7	; 0x07
     e30:	91 81       	ldd	r25, Z+1	; 0x01
     e32:	ee 81       	ldd	r30, Y+6	; 0x06
     e34:	ff 81       	ldd	r31, Y+7	; 0x07
     e36:	22 81       	ldd	r18, Z+2	; 0x02
     e38:	8a 83       	std	Y+2, r24	; 0x02
     e3a:	9b 83       	std	Y+3, r25	; 0x03
     e3c:	1c 82       	std	Y+4, r1	; 0x04
     e3e:	2d 83       	std	Y+5, r18	; 0x05
		ret = DIO_write_logic(&led_1, DIO_LOW);
     e40:	ce 01       	movw	r24, r28
     e42:	02 96       	adiw	r24, 0x02	; 2
     e44:	60 e0       	ldi	r22, 0x00	; 0
     e46:	0e 94 64 05 	call	0xac8	; 0xac8 <DIO_write_logic>
     e4a:	89 83       	std	Y+1, r24	; 0x01
	}
	return ret;
     e4c:	89 81       	ldd	r24, Y+1	; 0x01
}
     e4e:	27 96       	adiw	r28, 0x07	; 7
     e50:	0f b6       	in	r0, 0x3f	; 63
     e52:	f8 94       	cli
     e54:	de bf       	out	0x3e, r29	; 62
     e56:	0f be       	out	0x3f, r0	; 63
     e58:	cd bf       	out	0x3d, r28	; 61
     e5a:	cf 91       	pop	r28
     e5c:	df 91       	pop	r29
     e5e:	08 95       	ret

00000e60 <Led_Toggle>:
Std_ReturnType Led_Toggle(const ST_led_t* led)
{
     e60:	df 93       	push	r29
     e62:	cf 93       	push	r28
     e64:	cd b7       	in	r28, 0x3d	; 61
     e66:	de b7       	in	r29, 0x3e	; 62
     e68:	27 97       	sbiw	r28, 0x07	; 7
     e6a:	0f b6       	in	r0, 0x3f	; 63
     e6c:	f8 94       	cli
     e6e:	de bf       	out	0x3e, r29	; 62
     e70:	0f be       	out	0x3f, r0	; 63
     e72:	cd bf       	out	0x3d, r28	; 61
     e74:	9f 83       	std	Y+7, r25	; 0x07
     e76:	8e 83       	std	Y+6, r24	; 0x06
	Std_ReturnType ret = E_OK;
     e78:	81 e0       	ldi	r24, 0x01	; 1
     e7a:	89 83       	std	Y+1, r24	; 0x01
	if(led == NULL)
     e7c:	8e 81       	ldd	r24, Y+6	; 0x06
     e7e:	9f 81       	ldd	r25, Y+7	; 0x07
     e80:	00 97       	sbiw	r24, 0x00	; 0
     e82:	11 f4       	brne	.+4      	; 0xe88 <Led_Toggle+0x28>
	{
		ret = E_NOT_OK;
     e84:	19 82       	std	Y+1, r1	; 0x01
     e86:	12 c0       	rjmp	.+36     	; 0xeac <Led_Toggle+0x4c>
		{
			.port = led->port,
			.pin = led->pin,
			.pin_logic = led->status,
			.pin_direction = OUTPUT
		};
     e88:	ee 81       	ldd	r30, Y+6	; 0x06
     e8a:	ff 81       	ldd	r31, Y+7	; 0x07
     e8c:	80 81       	ld	r24, Z
     e8e:	ee 81       	ldd	r30, Y+6	; 0x06
     e90:	ff 81       	ldd	r31, Y+7	; 0x07
     e92:	91 81       	ldd	r25, Z+1	; 0x01
     e94:	ee 81       	ldd	r30, Y+6	; 0x06
     e96:	ff 81       	ldd	r31, Y+7	; 0x07
     e98:	22 81       	ldd	r18, Z+2	; 0x02
     e9a:	8a 83       	std	Y+2, r24	; 0x02
     e9c:	9b 83       	std	Y+3, r25	; 0x03
     e9e:	1c 82       	std	Y+4, r1	; 0x04
     ea0:	2d 83       	std	Y+5, r18	; 0x05
		ret = DIO_pin_toggle(&led_1);
     ea2:	ce 01       	movw	r24, r28
     ea4:	02 96       	adiw	r24, 0x02	; 2
     ea6:	0e 94 23 06 	call	0xc46	; 0xc46 <DIO_pin_toggle>
     eaa:	89 83       	std	Y+1, r24	; 0x01
	}
	return ret;
     eac:	89 81       	ldd	r24, Y+1	; 0x01
}
     eae:	27 96       	adiw	r28, 0x07	; 7
     eb0:	0f b6       	in	r0, 0x3f	; 63
     eb2:	f8 94       	cli
     eb4:	de bf       	out	0x3e, r29	; 62
     eb6:	0f be       	out	0x3f, r0	; 63
     eb8:	cd bf       	out	0x3d, r28	; 61
     eba:	cf 91       	pop	r28
     ebc:	df 91       	pop	r29
     ebe:	08 95       	ret

00000ec0 <Led_State>:
EN_ledStatus_t Led_State(const ST_led_t* led)
{
     ec0:	df 93       	push	r29
     ec2:	cf 93       	push	r28
     ec4:	00 d0       	rcall	.+0      	; 0xec6 <Led_State+0x6>
     ec6:	00 d0       	rcall	.+0      	; 0xec8 <Led_State+0x8>
     ec8:	cd b7       	in	r28, 0x3d	; 61
     eca:	de b7       	in	r29, 0x3e	; 62
     ecc:	9b 83       	std	Y+3, r25	; 0x03
     ece:	8a 83       	std	Y+2, r24	; 0x02
	Std_ReturnType ret = E_OK;
     ed0:	81 e0       	ldi	r24, 0x01	; 1
     ed2:	89 83       	std	Y+1, r24	; 0x01
	if(led == NULL)
     ed4:	8a 81       	ldd	r24, Y+2	; 0x02
     ed6:	9b 81       	ldd	r25, Y+3	; 0x03
     ed8:	00 97       	sbiw	r24, 0x00	; 0
     eda:	11 f4       	brne	.+4      	; 0xee0 <Led_State+0x20>
	{
		ret = E_NOT_OK;
     edc:	19 82       	std	Y+1, r1	; 0x01
     ede:	04 c0       	rjmp	.+8      	; 0xee8 <Led_State+0x28>
	}
	else
	{
		return led->status;
     ee0:	ea 81       	ldd	r30, Y+2	; 0x02
     ee2:	fb 81       	ldd	r31, Y+3	; 0x03
     ee4:	82 81       	ldd	r24, Z+2	; 0x02
     ee6:	8c 83       	std	Y+4, r24	; 0x04
	}
}
     ee8:	8c 81       	ldd	r24, Y+4	; 0x04
     eea:	0f 90       	pop	r0
     eec:	0f 90       	pop	r0
     eee:	0f 90       	pop	r0
     ef0:	0f 90       	pop	r0
     ef2:	cf 91       	pop	r28
     ef4:	df 91       	pop	r29
     ef6:	08 95       	ret

00000ef8 <Led_Blink_aSecond>:
Std_ReturnType Led_Blink_aSecond(const ST_led_t* led)
{
     ef8:	df 93       	push	r29
     efa:	cf 93       	push	r28
     efc:	00 d0       	rcall	.+0      	; 0xefe <Led_Blink_aSecond+0x6>
     efe:	00 d0       	rcall	.+0      	; 0xf00 <Led_Blink_aSecond+0x8>
     f00:	0f 92       	push	r0
     f02:	cd b7       	in	r28, 0x3d	; 61
     f04:	de b7       	in	r29, 0x3e	; 62
     f06:	9d 83       	std	Y+5, r25	; 0x05
     f08:	8c 83       	std	Y+4, r24	; 0x04
	Std_ReturnType ret = E_OK;
     f0a:	81 e0       	ldi	r24, 0x01	; 1
     f0c:	8b 83       	std	Y+3, r24	; 0x03
	if(led == NULL)
     f0e:	8c 81       	ldd	r24, Y+4	; 0x04
     f10:	9d 81       	ldd	r25, Y+5	; 0x05
     f12:	00 97       	sbiw	r24, 0x00	; 0
     f14:	11 f4       	brne	.+4      	; 0xf1a <Led_Blink_aSecond+0x22>
	{
		ret = E_NOT_OK;
     f16:	1b 82       	std	Y+3, r1	; 0x03
     f18:	3d c0       	rjmp	.+122    	; 0xf94 <Led_Blink_aSecond+0x9c>
	}
	else
	{
		/* normal mode */
		CLR_BIT(TCCR2,WGM20);
     f1a:	a5 e4       	ldi	r26, 0x45	; 69
     f1c:	b0 e0       	ldi	r27, 0x00	; 0
     f1e:	e5 e4       	ldi	r30, 0x45	; 69
     f20:	f0 e0       	ldi	r31, 0x00	; 0
     f22:	80 81       	ld	r24, Z
     f24:	8f 7b       	andi	r24, 0xBF	; 191
     f26:	8c 93       	st	X, r24
		CLR_BIT(TCCR2,WGM21);
     f28:	a5 e4       	ldi	r26, 0x45	; 69
     f2a:	b0 e0       	ldi	r27, 0x00	; 0
     f2c:	e5 e4       	ldi	r30, 0x45	; 69
     f2e:	f0 e0       	ldi	r31, 0x00	; 0
     f30:	80 81       	ld	r24, Z
     f32:	87 7f       	andi	r24, 0xF7	; 247
     f34:	8c 93       	st	X, r24

		/* select prescaler 8 */
		TCCR2 = TCCR2 | 0X02;
     f36:	a5 e4       	ldi	r26, 0x45	; 69
     f38:	b0 e0       	ldi	r27, 0x00	; 0
     f3a:	e5 e4       	ldi	r30, 0x45	; 69
     f3c:	f0 e0       	ldi	r31, 0x00	; 0
     f3e:	80 81       	ld	r24, Z
     f40:	82 60       	ori	r24, 0x02	; 2
     f42:	8c 93       	st	X, r24

		TCNT2 = 56;
     f44:	e4 e4       	ldi	r30, 0x44	; 68
     f46:	f0 e0       	ldi	r31, 0x00	; 0
     f48:	88 e3       	ldi	r24, 0x38	; 56
     f4a:	80 83       	st	Z, r24

		for(uint16 i=0 ; i<25000 ; i++)
     f4c:	1a 82       	std	Y+2, r1	; 0x02
     f4e:	19 82       	std	Y+1, r1	; 0x01
     f50:	1b c0       	rjmp	.+54     	; 0xf88 <Led_Blink_aSecond+0x90>
		{
			while(TCNT2);/* still loop to overflow */
     f52:	e4 e4       	ldi	r30, 0x44	; 68
     f54:	f0 e0       	ldi	r31, 0x00	; 0
     f56:	80 81       	ld	r24, Z
     f58:	88 23       	and	r24, r24
     f5a:	d9 f7       	brne	.-10     	; 0xf52 <Led_Blink_aSecond+0x5a>
			TCNT2 = 56;
     f5c:	e4 e4       	ldi	r30, 0x44	; 68
     f5e:	f0 e0       	ldi	r31, 0x00	; 0
     f60:	88 e3       	ldi	r24, 0x38	; 56
     f62:	80 83       	st	Z, r24
			if(i%2500 == 0)
     f64:	89 81       	ldd	r24, Y+1	; 0x01
     f66:	9a 81       	ldd	r25, Y+2	; 0x02
     f68:	24 ec       	ldi	r18, 0xC4	; 196
     f6a:	39 e0       	ldi	r19, 0x09	; 9
     f6c:	b9 01       	movw	r22, r18
     f6e:	0e 94 12 0a 	call	0x1424	; 0x1424 <__udivmodhi4>
     f72:	00 97       	sbiw	r24, 0x00	; 0
     f74:	21 f4       	brne	.+8      	; 0xf7e <Led_Blink_aSecond+0x86>
			{
				Led_Toggle(led);
     f76:	8c 81       	ldd	r24, Y+4	; 0x04
     f78:	9d 81       	ldd	r25, Y+5	; 0x05
     f7a:	0e 94 30 07 	call	0xe60	; 0xe60 <Led_Toggle>
		/* select prescaler 8 */
		TCCR2 = TCCR2 | 0X02;

		TCNT2 = 56;

		for(uint16 i=0 ; i<25000 ; i++)
     f7e:	89 81       	ldd	r24, Y+1	; 0x01
     f80:	9a 81       	ldd	r25, Y+2	; 0x02
     f82:	01 96       	adiw	r24, 0x01	; 1
     f84:	9a 83       	std	Y+2, r25	; 0x02
     f86:	89 83       	std	Y+1, r24	; 0x01
     f88:	89 81       	ldd	r24, Y+1	; 0x01
     f8a:	9a 81       	ldd	r25, Y+2	; 0x02
     f8c:	21 e6       	ldi	r18, 0x61	; 97
     f8e:	88 3a       	cpi	r24, 0xA8	; 168
     f90:	92 07       	cpc	r25, r18
     f92:	f8 f2       	brcs	.-66     	; 0xf52 <Led_Blink_aSecond+0x5a>
			{
				Led_Toggle(led);
			}
		}
	}
	return ret;
     f94:	8b 81       	ldd	r24, Y+3	; 0x03
}
     f96:	0f 90       	pop	r0
     f98:	0f 90       	pop	r0
     f9a:	0f 90       	pop	r0
     f9c:	0f 90       	pop	r0
     f9e:	0f 90       	pop	r0
     fa0:	cf 91       	pop	r28
     fa2:	df 91       	pop	r29
     fa4:	08 95       	ret

00000fa6 <Two_Led_Blink_aSecond>:
Std_ReturnType Two_Led_Blink_aSecond(const ST_led_t* led_1, const ST_led_t* led_2)
{
     fa6:	df 93       	push	r29
     fa8:	cf 93       	push	r28
     faa:	cd b7       	in	r28, 0x3d	; 61
     fac:	de b7       	in	r29, 0x3e	; 62
     fae:	27 97       	sbiw	r28, 0x07	; 7
     fb0:	0f b6       	in	r0, 0x3f	; 63
     fb2:	f8 94       	cli
     fb4:	de bf       	out	0x3e, r29	; 62
     fb6:	0f be       	out	0x3f, r0	; 63
     fb8:	cd bf       	out	0x3d, r28	; 61
     fba:	9d 83       	std	Y+5, r25	; 0x05
     fbc:	8c 83       	std	Y+4, r24	; 0x04
     fbe:	7f 83       	std	Y+7, r23	; 0x07
     fc0:	6e 83       	std	Y+6, r22	; 0x06
	Std_ReturnType ret = E_OK;
     fc2:	81 e0       	ldi	r24, 0x01	; 1
     fc4:	8b 83       	std	Y+3, r24	; 0x03
	if(led_1 == NULL || led_2 == NULL)
     fc6:	8c 81       	ldd	r24, Y+4	; 0x04
     fc8:	9d 81       	ldd	r25, Y+5	; 0x05
     fca:	00 97       	sbiw	r24, 0x00	; 0
     fcc:	21 f0       	breq	.+8      	; 0xfd6 <Two_Led_Blink_aSecond+0x30>
     fce:	8e 81       	ldd	r24, Y+6	; 0x06
     fd0:	9f 81       	ldd	r25, Y+7	; 0x07
     fd2:	00 97       	sbiw	r24, 0x00	; 0
     fd4:	11 f4       	brne	.+4      	; 0xfda <Two_Led_Blink_aSecond+0x34>
	{
		ret = E_NOT_OK;
     fd6:	1b 82       	std	Y+3, r1	; 0x03
     fd8:	41 c0       	rjmp	.+130    	; 0x105c <Two_Led_Blink_aSecond+0xb6>
	}
	else
	{
		CLR_BIT(TCCR2,WGM20);
     fda:	a5 e4       	ldi	r26, 0x45	; 69
     fdc:	b0 e0       	ldi	r27, 0x00	; 0
     fde:	e5 e4       	ldi	r30, 0x45	; 69
     fe0:	f0 e0       	ldi	r31, 0x00	; 0
     fe2:	80 81       	ld	r24, Z
     fe4:	8f 7b       	andi	r24, 0xBF	; 191
     fe6:	8c 93       	st	X, r24
		CLR_BIT(TCCR2,WGM21);
     fe8:	a5 e4       	ldi	r26, 0x45	; 69
     fea:	b0 e0       	ldi	r27, 0x00	; 0
     fec:	e5 e4       	ldi	r30, 0x45	; 69
     fee:	f0 e0       	ldi	r31, 0x00	; 0
     ff0:	80 81       	ld	r24, Z
     ff2:	87 7f       	andi	r24, 0xF7	; 247
     ff4:	8c 93       	st	X, r24

		TCCR2 = TCCR2 | 0X02;
     ff6:	a5 e4       	ldi	r26, 0x45	; 69
     ff8:	b0 e0       	ldi	r27, 0x00	; 0
     ffa:	e5 e4       	ldi	r30, 0x45	; 69
     ffc:	f0 e0       	ldi	r31, 0x00	; 0
     ffe:	80 81       	ld	r24, Z
    1000:	82 60       	ori	r24, 0x02	; 2
    1002:	8c 93       	st	X, r24

		TCNT2 = 56;
    1004:	e4 e4       	ldi	r30, 0x44	; 68
    1006:	f0 e0       	ldi	r31, 0x00	; 0
    1008:	88 e3       	ldi	r24, 0x38	; 56
    100a:	80 83       	st	Z, r24

		for(uint16 i=0 ; i<25000 ; i++)
    100c:	1a 82       	std	Y+2, r1	; 0x02
    100e:	19 82       	std	Y+1, r1	; 0x01
    1010:	1f c0       	rjmp	.+62     	; 0x1050 <Two_Led_Blink_aSecond+0xaa>
		{
			while(TCNT2);
    1012:	e4 e4       	ldi	r30, 0x44	; 68
    1014:	f0 e0       	ldi	r31, 0x00	; 0
    1016:	80 81       	ld	r24, Z
    1018:	88 23       	and	r24, r24
    101a:	d9 f7       	brne	.-10     	; 0x1012 <Two_Led_Blink_aSecond+0x6c>
			TCNT2 = 56;
    101c:	e4 e4       	ldi	r30, 0x44	; 68
    101e:	f0 e0       	ldi	r31, 0x00	; 0
    1020:	88 e3       	ldi	r24, 0x38	; 56
    1022:	80 83       	st	Z, r24
			if(i%2500 == 0)
    1024:	89 81       	ldd	r24, Y+1	; 0x01
    1026:	9a 81       	ldd	r25, Y+2	; 0x02
    1028:	24 ec       	ldi	r18, 0xC4	; 196
    102a:	39 e0       	ldi	r19, 0x09	; 9
    102c:	b9 01       	movw	r22, r18
    102e:	0e 94 12 0a 	call	0x1424	; 0x1424 <__udivmodhi4>
    1032:	00 97       	sbiw	r24, 0x00	; 0
    1034:	41 f4       	brne	.+16     	; 0x1046 <Two_Led_Blink_aSecond+0xa0>
			{
				Led_Toggle(led_1);
    1036:	8c 81       	ldd	r24, Y+4	; 0x04
    1038:	9d 81       	ldd	r25, Y+5	; 0x05
    103a:	0e 94 30 07 	call	0xe60	; 0xe60 <Led_Toggle>
				Led_Toggle(led_2);
    103e:	8e 81       	ldd	r24, Y+6	; 0x06
    1040:	9f 81       	ldd	r25, Y+7	; 0x07
    1042:	0e 94 30 07 	call	0xe60	; 0xe60 <Led_Toggle>

		TCCR2 = TCCR2 | 0X02;

		TCNT2 = 56;

		for(uint16 i=0 ; i<25000 ; i++)
    1046:	89 81       	ldd	r24, Y+1	; 0x01
    1048:	9a 81       	ldd	r25, Y+2	; 0x02
    104a:	01 96       	adiw	r24, 0x01	; 1
    104c:	9a 83       	std	Y+2, r25	; 0x02
    104e:	89 83       	std	Y+1, r24	; 0x01
    1050:	89 81       	ldd	r24, Y+1	; 0x01
    1052:	9a 81       	ldd	r25, Y+2	; 0x02
    1054:	21 e6       	ldi	r18, 0x61	; 97
    1056:	88 3a       	cpi	r24, 0xA8	; 168
    1058:	92 07       	cpc	r25, r18
    105a:	d8 f2       	brcs	.-74     	; 0x1012 <Two_Led_Blink_aSecond+0x6c>
				Led_Toggle(led_1);
				Led_Toggle(led_2);
			}
		}
	}
	return ret;
    105c:	8b 81       	ldd	r24, Y+3	; 0x03
}
    105e:	27 96       	adiw	r28, 0x07	; 7
    1060:	0f b6       	in	r0, 0x3f	; 63
    1062:	f8 94       	cli
    1064:	de bf       	out	0x3e, r29	; 62
    1066:	0f be       	out	0x3f, r0	; 63
    1068:	cd bf       	out	0x3d, r28	; 61
    106a:	cf 91       	pop	r28
    106c:	df 91       	pop	r29
    106e:	08 95       	ret

00001070 <ledTest>:
	.pin = PIN0,
	.status = LED_OFF
};

void ledTest()
{
    1070:	df 93       	push	r29
    1072:	cf 93       	push	r28
    1074:	cd b7       	in	r28, 0x3d	; 61
    1076:	de b7       	in	r29, 0x3e	; 62
	Led_Init(&led1);
    1078:	81 e9       	ldi	r24, 0x91	; 145
    107a:	90 e0       	ldi	r25, 0x00	; 0
    107c:	0e 94 98 06 	call	0xd30	; 0xd30 <Led_Init>
	while(1)
	{
		//Led_Turn_Off(&led1);
		//Led_Turn_On(&led1);
		Led_Toggle(&led1);
    1080:	81 e9       	ldi	r24, 0x91	; 145
    1082:	90 e0       	ldi	r25, 0x00	; 0
    1084:	0e 94 30 07 	call	0xe60	; 0xe60 <Led_Toggle>
    1088:	fb cf       	rjmp	.-10     	; 0x1080 <ledTest+0x10>

0000108a <BUTTON_init>:
 *      Author: mohamed_eldeeb
 */
#include "button.h"

 Std_ReturnType  BUTTON_init(const ST_buton_t *button)
 {
    108a:	df 93       	push	r29
    108c:	cf 93       	push	r28
    108e:	00 d0       	rcall	.+0      	; 0x1090 <BUTTON_init+0x6>
    1090:	0f 92       	push	r0
    1092:	cd b7       	in	r28, 0x3d	; 61
    1094:	de b7       	in	r29, 0x3e	; 62
    1096:	9b 83       	std	Y+3, r25	; 0x03
    1098:	8a 83       	std	Y+2, r24	; 0x02
	 Std_ReturnType ret = E_OK;
    109a:	81 e0       	ldi	r24, 0x01	; 1
    109c:	89 83       	std	Y+1, r24	; 0x01
	 if(button == NULL)
    109e:	8a 81       	ldd	r24, Y+2	; 0x02
    10a0:	9b 81       	ldd	r25, Y+3	; 0x03
    10a2:	00 97       	sbiw	r24, 0x00	; 0
    10a4:	11 f4       	brne	.+4      	; 0x10aa <BUTTON_init+0x20>
	 {
		 ret = E_NOT_OK;
    10a6:	19 82       	std	Y+1, r1	; 0x01
    10a8:	04 c0       	rjmp	.+8      	; 0x10b2 <BUTTON_init+0x28>
	 }
	 else
	 {
		  DIO_pin_dirction_init(&(button->pin));
    10aa:	8a 81       	ldd	r24, Y+2	; 0x02
    10ac:	9b 81       	ldd	r25, Y+3	; 0x03
    10ae:	0e 94 a5 04 	call	0x94a	; 0x94a <DIO_pin_dirction_init>
	 }
	 return ret;
    10b2:	89 81       	ldd	r24, Y+1	; 0x01
 }
    10b4:	0f 90       	pop	r0
    10b6:	0f 90       	pop	r0
    10b8:	0f 90       	pop	r0
    10ba:	cf 91       	pop	r28
    10bc:	df 91       	pop	r29
    10be:	08 95       	ret

000010c0 <BUTTON_read>:

Std_ReturnType BUTTON_read(const ST_buton_t *button,EN_buttonState *btn_state)
{
    10c0:	df 93       	push	r29
    10c2:	cf 93       	push	r28
    10c4:	00 d0       	rcall	.+0      	; 0x10c6 <BUTTON_read+0x6>
    10c6:	00 d0       	rcall	.+0      	; 0x10c8 <BUTTON_read+0x8>
    10c8:	00 d0       	rcall	.+0      	; 0x10ca <BUTTON_read+0xa>
    10ca:	cd b7       	in	r28, 0x3d	; 61
    10cc:	de b7       	in	r29, 0x3e	; 62
    10ce:	9c 83       	std	Y+4, r25	; 0x04
    10d0:	8b 83       	std	Y+3, r24	; 0x03
    10d2:	7e 83       	std	Y+6, r23	; 0x06
    10d4:	6d 83       	std	Y+5, r22	; 0x05
	 Std_ReturnType ret = E_OK;
    10d6:	81 e0       	ldi	r24, 0x01	; 1
    10d8:	89 83       	std	Y+1, r24	; 0x01
	 EN_logic_t pin_logic = DIO_LOW;
    10da:	1a 82       	std	Y+2, r1	; 0x02
	 if(button == NULL && btn_state == NULL)
    10dc:	8b 81       	ldd	r24, Y+3	; 0x03
    10de:	9c 81       	ldd	r25, Y+4	; 0x04
    10e0:	00 97       	sbiw	r24, 0x00	; 0
    10e2:	31 f4       	brne	.+12     	; 0x10f0 <BUTTON_read+0x30>
    10e4:	8d 81       	ldd	r24, Y+5	; 0x05
    10e6:	9e 81       	ldd	r25, Y+6	; 0x06
    10e8:	00 97       	sbiw	r24, 0x00	; 0
    10ea:	11 f4       	brne	.+4      	; 0x10f0 <BUTTON_read+0x30>
	 {
		 ret = E_NOT_OK;
    10ec:	19 82       	std	Y+1, r1	; 0x01
    10ee:	31 c0       	rjmp	.+98     	; 0x1152 <BUTTON_read+0x92>
	 }
	 else
	 {
		 DIO_read_logic(&(button->pin),&pin_logic);
    10f0:	8b 81       	ldd	r24, Y+3	; 0x03
    10f2:	9c 81       	ldd	r25, Y+4	; 0x04
    10f4:	9e 01       	movw	r18, r28
    10f6:	2e 5f       	subi	r18, 0xFE	; 254
    10f8:	3f 4f       	sbci	r19, 0xFF	; 255
    10fa:	b9 01       	movw	r22, r18
    10fc:	0e 94 e7 05 	call	0xbce	; 0xbce <DIO_read_logic>
		 if(button->connection == PULL_DOWN)
    1100:	eb 81       	ldd	r30, Y+3	; 0x03
    1102:	fc 81       	ldd	r31, Y+4	; 0x04
    1104:	84 81       	ldd	r24, Z+4	; 0x04
    1106:	81 30       	cpi	r24, 0x01	; 1
    1108:	79 f4       	brne	.+30     	; 0x1128 <BUTTON_read+0x68>
		 {
			 if(pin_logic == DIO_HIGH)
    110a:	8a 81       	ldd	r24, Y+2	; 0x02
    110c:	81 30       	cpi	r24, 0x01	; 1
    110e:	21 f4       	brne	.+8      	; 0x1118 <BUTTON_read+0x58>
			 {
				 *btn_state = PRESSED;
    1110:	ed 81       	ldd	r30, Y+5	; 0x05
    1112:	fe 81       	ldd	r31, Y+6	; 0x06
    1114:	10 82       	st	Z, r1
    1116:	1b c0       	rjmp	.+54     	; 0x114e <BUTTON_read+0x8e>
			 }
			 else if(pin_logic == DIO_LOW)
    1118:	8a 81       	ldd	r24, Y+2	; 0x02
    111a:	88 23       	and	r24, r24
    111c:	c1 f4       	brne	.+48     	; 0x114e <BUTTON_read+0x8e>
			 {
				 *btn_state = RELEASSED;
    111e:	ed 81       	ldd	r30, Y+5	; 0x05
    1120:	fe 81       	ldd	r31, Y+6	; 0x06
    1122:	81 e0       	ldi	r24, 0x01	; 1
    1124:	80 83       	st	Z, r24
    1126:	13 c0       	rjmp	.+38     	; 0x114e <BUTTON_read+0x8e>
			 }
			 else{/* nothing */  }
		 }
		 else if(button->connection == PULL_UP)
    1128:	eb 81       	ldd	r30, Y+3	; 0x03
    112a:	fc 81       	ldd	r31, Y+4	; 0x04
    112c:	84 81       	ldd	r24, Z+4	; 0x04
    112e:	88 23       	and	r24, r24
    1130:	71 f4       	brne	.+28     	; 0x114e <BUTTON_read+0x8e>
		 {
		 	 if(pin_logic == DIO_HIGH)
    1132:	8a 81       	ldd	r24, Y+2	; 0x02
    1134:	81 30       	cpi	r24, 0x01	; 1
    1136:	29 f4       	brne	.+10     	; 0x1142 <BUTTON_read+0x82>
		 	 {
		 		 *btn_state = RELEASSED;
    1138:	ed 81       	ldd	r30, Y+5	; 0x05
    113a:	fe 81       	ldd	r31, Y+6	; 0x06
    113c:	81 e0       	ldi	r24, 0x01	; 1
    113e:	80 83       	st	Z, r24
    1140:	06 c0       	rjmp	.+12     	; 0x114e <BUTTON_read+0x8e>
		 	 }
		 	 else if(pin_logic == DIO_LOW)
    1142:	8a 81       	ldd	r24, Y+2	; 0x02
    1144:	88 23       	and	r24, r24
    1146:	19 f4       	brne	.+6      	; 0x114e <BUTTON_read+0x8e>
		 	 {
		 		 *btn_state = PRESSED;
    1148:	ed 81       	ldd	r30, Y+5	; 0x05
    114a:	fe 81       	ldd	r31, Y+6	; 0x06
    114c:	10 82       	st	Z, r1
		 	 }
		 	 else{ /* nothing */  }
		 }
		 else{ /* nothing */  }
		 ret = E_OK;
    114e:	81 e0       	ldi	r24, 0x01	; 1
    1150:	89 83       	std	Y+1, r24	; 0x01
	 }
	 return ret;
    1152:	89 81       	ldd	r24, Y+1	; 0x01
}
    1154:	26 96       	adiw	r28, 0x06	; 6
    1156:	0f b6       	in	r0, 0x3f	; 63
    1158:	f8 94       	cli
    115a:	de bf       	out	0x3e, r29	; 62
    115c:	0f be       	out	0x3f, r0	; 63
    115e:	cd bf       	out	0x3d, r28	; 61
    1160:	cf 91       	pop	r28
    1162:	df 91       	pop	r29
    1164:	08 95       	ret

00001166 <appStart>:
} ;

 Std_ReturnType ret = E_OK;
 volatile uint8_t carState;
void appStart()
{
    1166:	df 93       	push	r29
    1168:	cf 93       	push	r28
    116a:	cd b7       	in	r28, 0x3d	; 61
    116c:	de b7       	in	r29, 0x3e	; 62


	ret = EXI_interrupt_init(&ext_interrupt_0);
    116e:	83 ea       	ldi	r24, 0xA3	; 163
    1170:	90 e0       	ldi	r25, 0x00	; 0
    1172:	0e 94 82 02 	call	0x504	; 0x504 <EXI_interrupt_init>
    1176:	80 93 ab 00 	sts	0x00AB, r24
	ret = EXI_CallBack(&ext_interrupt_0);
    117a:	83 ea       	ldi	r24, 0xA3	; 163
    117c:	90 e0       	ldi	r25, 0x00	; 0
    117e:	0e 94 a1 02 	call	0x542	; 0x542 <EXI_CallBack>
    1182:	80 93 ab 00 	sts	0x00AB, r24

	ret = Led_Init(&pedestriansGrean);
    1186:	84 e9       	ldi	r24, 0x94	; 148
    1188:	90 e0       	ldi	r25, 0x00	; 0
    118a:	0e 94 98 06 	call	0xd30	; 0xd30 <Led_Init>
    118e:	80 93 ab 00 	sts	0x00AB, r24
	ret = Led_Init(&pedestriansYellow);
    1192:	87 e9       	ldi	r24, 0x97	; 151
    1194:	90 e0       	ldi	r25, 0x00	; 0
    1196:	0e 94 98 06 	call	0xd30	; 0xd30 <Led_Init>
    119a:	80 93 ab 00 	sts	0x00AB, r24
	ret = Led_Init(&pedestriansRed);
    119e:	8a e9       	ldi	r24, 0x9A	; 154
    11a0:	90 e0       	ldi	r25, 0x00	; 0
    11a2:	0e 94 98 06 	call	0xd30	; 0xd30 <Led_Init>
    11a6:	80 93 ab 00 	sts	0x00AB, r24

	ret = Led_Init(&carGrean);
    11aa:	86 eb       	ldi	r24, 0xB6	; 182
    11ac:	90 e0       	ldi	r25, 0x00	; 0
    11ae:	0e 94 98 06 	call	0xd30	; 0xd30 <Led_Init>
    11b2:	80 93 ab 00 	sts	0x00AB, r24
	ret = Led_Init(&carYellow);
    11b6:	8d e9       	ldi	r24, 0x9D	; 157
    11b8:	90 e0       	ldi	r25, 0x00	; 0
    11ba:	0e 94 98 06 	call	0xd30	; 0xd30 <Led_Init>
    11be:	80 93 ab 00 	sts	0x00AB, r24
	ret = Led_Init(&carRed);
    11c2:	80 ea       	ldi	r24, 0xA0	; 160
    11c4:	90 e0       	ldi	r25, 0x00	; 0
    11c6:	0e 94 98 06 	call	0xd30	; 0xd30 <Led_Init>
    11ca:	80 93 ab 00 	sts	0x00AB, r24

    while (1)
    {
		normalMode();
    11ce:	0e 94 f3 08 	call	0x11e6	; 0x11e6 <normalMode>
    11d2:	fd cf       	rjmp	.-6      	; 0x11ce <appStart+0x68>

000011d4 <ifPressed>:
    }
}

void ifPressed()
{
    11d4:	df 93       	push	r29
    11d6:	cf 93       	push	r28
    11d8:	cd b7       	in	r28, 0x3d	; 61
    11da:	de b7       	in	r29, 0x3e	; 62
	pedstrainsMode();
    11dc:	0e 94 48 09 	call	0x1290	; 0x1290 <pedstrainsMode>
}
    11e0:	cf 91       	pop	r28
    11e2:	df 91       	pop	r29
    11e4:	08 95       	ret

000011e6 <normalMode>:
	Cars' LEDs will be changed every 5 sec starting from Green then yellow then red then yellow then Green.
	The Yellow LED will blink for 5 seconds before moving to Green or Red LEDs.

*/
void normalMode()
{
    11e6:	df 93       	push	r29
    11e8:	cf 93       	push	r28
    11ea:	cd b7       	in	r28, 0x3d	; 61
    11ec:	de b7       	in	r29, 0x3e	; 62
	void turnOffLeds();

	carState = greanCarState;
    11ee:	82 e0       	ldi	r24, 0x02	; 2
    11f0:	80 93 b9 00 	sts	0x00B9, r24
	ret = Led_Turn_On(&carGrean);
    11f4:	86 eb       	ldi	r24, 0xB6	; 182
    11f6:	90 e0       	ldi	r25, 0x00	; 0
    11f8:	0e 94 ce 06 	call	0xd9c	; 0xd9c <Led_Turn_On>
    11fc:	80 93 ab 00 	sts	0x00AB, r24
	ret = Led_Turn_On(&pedestriansRed);
    1200:	8a e9       	ldi	r24, 0x9A	; 154
    1202:	90 e0       	ldi	r25, 0x00	; 0
    1204:	0e 94 ce 06 	call	0xd9c	; 0xd9c <Led_Turn_On>
    1208:	80 93 ab 00 	sts	0x00AB, r24
	delay5s();
    120c:	0e 94 1d 02 	call	0x43a	; 0x43a <delay5s>

	carState = yellowCarState;
    1210:	81 e0       	ldi	r24, 0x01	; 1
    1212:	80 93 b9 00 	sts	0x00B9, r24
	ret = Two_Led_Blink_aSecond(&carYellow, &pedestriansYellow);
    1216:	8d e9       	ldi	r24, 0x9D	; 157
    1218:	90 e0       	ldi	r25, 0x00	; 0
    121a:	27 e9       	ldi	r18, 0x97	; 151
    121c:	30 e0       	ldi	r19, 0x00	; 0
    121e:	b9 01       	movw	r22, r18
    1220:	0e 94 d3 07 	call	0xfa6	; 0xfa6 <Two_Led_Blink_aSecond>
    1224:	80 93 ab 00 	sts	0x00AB, r24

	turnOffLeds();
    1228:	0e 94 8d 09 	call	0x131a	; 0x131a <turnOffLeds>
	carState = redCarState;
    122c:	10 92 b9 00 	sts	0x00B9, r1
	ret = Led_Turn_On(&carRed);
    1230:	80 ea       	ldi	r24, 0xA0	; 160
    1232:	90 e0       	ldi	r25, 0x00	; 0
    1234:	0e 94 ce 06 	call	0xd9c	; 0xd9c <Led_Turn_On>
    1238:	80 93 ab 00 	sts	0x00AB, r24
	ret = Led_Turn_On(&pedestriansGrean);
    123c:	84 e9       	ldi	r24, 0x94	; 148
    123e:	90 e0       	ldi	r25, 0x00	; 0
    1240:	0e 94 ce 06 	call	0xd9c	; 0xd9c <Led_Turn_On>
    1244:	80 93 ab 00 	sts	0x00AB, r24
	delay5s();
    1248:	0e 94 1d 02 	call	0x43a	; 0x43a <delay5s>

	carState = yellowCarState;
    124c:	81 e0       	ldi	r24, 0x01	; 1
    124e:	80 93 b9 00 	sts	0x00B9, r24
	ret = Two_Led_Blink_aSecond(&carYellow, &pedestriansYellow);
    1252:	8d e9       	ldi	r24, 0x9D	; 157
    1254:	90 e0       	ldi	r25, 0x00	; 0
    1256:	27 e9       	ldi	r18, 0x97	; 151
    1258:	30 e0       	ldi	r19, 0x00	; 0
    125a:	b9 01       	movw	r22, r18
    125c:	0e 94 d3 07 	call	0xfa6	; 0xfa6 <Two_Led_Blink_aSecond>
    1260:	80 93 ab 00 	sts	0x00AB, r24

	turnOffLeds();
    1264:	0e 94 8d 09 	call	0x131a	; 0x131a <turnOffLeds>
	carState = greanCarState;
    1268:	82 e0       	ldi	r24, 0x02	; 2
    126a:	80 93 b9 00 	sts	0x00B9, r24
	ret = Led_Turn_On(&carGrean);
    126e:	86 eb       	ldi	r24, 0xB6	; 182
    1270:	90 e0       	ldi	r25, 0x00	; 0
    1272:	0e 94 ce 06 	call	0xd9c	; 0xd9c <Led_Turn_On>
    1276:	80 93 ab 00 	sts	0x00AB, r24
	ret = Led_Turn_On(&pedestriansRed);
    127a:	8a e9       	ldi	r24, 0x9A	; 154
    127c:	90 e0       	ldi	r25, 0x00	; 0
    127e:	0e 94 ce 06 	call	0xd9c	; 0xd9c <Led_Turn_On>
    1282:	80 93 ab 00 	sts	0x00AB, r24
	delay5s();
    1286:	0e 94 1d 02 	call	0x43a	; 0x43a <delay5s>
}
    128a:	cf 91       	pop	r28
    128c:	df 91       	pop	r29
    128e:	08 95       	ret

00001290 <pedstrainsMode>:

/*	Change from normal mode to pedestrian mode
		when the pedestrian button is pressed.*/
void pedstrainsMode()
{
    1290:	df 93       	push	r29
    1292:	cf 93       	push	r28
    1294:	cd b7       	in	r28, 0x3d	; 61
    1296:	de b7       	in	r29, 0x3e	; 62
	//If pressed when the cars' Red LED is on
	if(carState == redCarState)
    1298:	80 91 b9 00 	lds	r24, 0x00B9
    129c:	88 23       	and	r24, r24
    129e:	19 f4       	brne	.+6      	; 0x12a6 <pedstrainsMode+0x16>
	{
		carRedLedOn();
    12a0:	0e 94 f4 09 	call	0x13e8	; 0x13e8 <carRedLedOn>
    12a4:	0a c0       	rjmp	.+20     	; 0x12ba <pedstrainsMode+0x2a>
	}

	/*If pressed when the cars' Green LED is on or the cars' Yellow LED is blinking */
	else if( (carState == greanCarState) || (carState == yellowCarState) )
    12a6:	80 91 b9 00 	lds	r24, 0x00B9
    12aa:	82 30       	cpi	r24, 0x02	; 2
    12ac:	21 f0       	breq	.+8      	; 0x12b6 <pedstrainsMode+0x26>
    12ae:	80 91 b9 00 	lds	r24, 0x00B9
    12b2:	81 30       	cpi	r24, 0x01	; 1
    12b4:	11 f4       	brne	.+4      	; 0x12ba <pedstrainsMode+0x2a>
	{
		carGreenLedOn();
    12b6:	0e 94 b8 09 	call	0x1370	; 0x1370 <carGreenLedOn>
	}
	turnOffLeds();
    12ba:	0e 94 8d 09 	call	0x131a	; 0x131a <turnOffLeds>

	/*At the end of the two states the cars' Red LED will be off */
	ret = Led_Turn_Off(&carRed);
    12be:	80 ea       	ldi	r24, 0xA0	; 160
    12c0:	90 e0       	ldi	r25, 0x00	; 0
    12c2:	0e 94 ff 06 	call	0xdfe	; 0xdfe <Led_Turn_Off>
    12c6:	80 93 ab 00 	sts	0x00AB, r24

	/*   both Yellow LEDs start blinking for 5 seconds and the pedestrian's Green LED is still on.*/
	ret = Led_Turn_On(&pedestriansGrean);
    12ca:	84 e9       	ldi	r24, 0x94	; 148
    12cc:	90 e0       	ldi	r25, 0x00	; 0
    12ce:	0e 94 ce 06 	call	0xd9c	; 0xd9c <Led_Turn_On>
    12d2:	80 93 ab 00 	sts	0x00AB, r24
	ret = Two_Led_Blink_aSecond(&pedestriansYellow,&carYellow);
    12d6:	87 e9       	ldi	r24, 0x97	; 151
    12d8:	90 e0       	ldi	r25, 0x00	; 0
    12da:	2d e9       	ldi	r18, 0x9D	; 157
    12dc:	30 e0       	ldi	r19, 0x00	; 0
    12de:	b9 01       	movw	r22, r18
    12e0:	0e 94 d3 07 	call	0xfa6	; 0xfa6 <Two_Led_Blink_aSecond>
    12e4:	80 93 ab 00 	sts	0x00AB, r24

	/*After the 5 seconds the pedestrian Green LED will be off */
	ret = Led_Turn_Off(&pedestriansGrean);
    12e8:	84 e9       	ldi	r24, 0x94	; 148
    12ea:	90 e0       	ldi	r25, 0x00	; 0
    12ec:	0e 94 ff 06 	call	0xdfe	; 0xdfe <Led_Turn_Off>
    12f0:	80 93 ab 00 	sts	0x00AB, r24

	/* both the pedestrian Red LED and the cars' Green LED will be on. */
	ret = Led_Turn_On(&pedestriansRed);
    12f4:	8a e9       	ldi	r24, 0x9A	; 154
    12f6:	90 e0       	ldi	r25, 0x00	; 0
    12f8:	0e 94 ce 06 	call	0xd9c	; 0xd9c <Led_Turn_On>
    12fc:	80 93 ab 00 	sts	0x00AB, r24
	ret = Led_Turn_On(&carRed);
    1300:	80 ea       	ldi	r24, 0xA0	; 160
    1302:	90 e0       	ldi	r25, 0x00	; 0
    1304:	0e 94 ce 06 	call	0xd9c	; 0xd9c <Led_Turn_On>
    1308:	80 93 ab 00 	sts	0x00AB, r24

	delay5s();
    130c:	0e 94 1d 02 	call	0x43a	; 0x43a <delay5s>

	/* Traffic lights signals are going to the normal mode again. */
	normalMode();
    1310:	0e 94 f3 08 	call	0x11e6	; 0x11e6 <normalMode>
}
    1314:	cf 91       	pop	r28
    1316:	df 91       	pop	r29
    1318:	08 95       	ret

0000131a <turnOffLeds>:

void turnOffLeds()
{
    131a:	df 93       	push	r29
    131c:	cf 93       	push	r28
    131e:	cd b7       	in	r28, 0x3d	; 61
    1320:	de b7       	in	r29, 0x3e	; 62
	ret = Led_Turn_Off(&carRed);
    1322:	80 ea       	ldi	r24, 0xA0	; 160
    1324:	90 e0       	ldi	r25, 0x00	; 0
    1326:	0e 94 ff 06 	call	0xdfe	; 0xdfe <Led_Turn_Off>
    132a:	80 93 ab 00 	sts	0x00AB, r24
	ret = Led_Turn_Off(&carGrean);
    132e:	86 eb       	ldi	r24, 0xB6	; 182
    1330:	90 e0       	ldi	r25, 0x00	; 0
    1332:	0e 94 ff 06 	call	0xdfe	; 0xdfe <Led_Turn_Off>
    1336:	80 93 ab 00 	sts	0x00AB, r24
	ret = Led_Turn_Off(&carYellow);
    133a:	8d e9       	ldi	r24, 0x9D	; 157
    133c:	90 e0       	ldi	r25, 0x00	; 0
    133e:	0e 94 ff 06 	call	0xdfe	; 0xdfe <Led_Turn_Off>
    1342:	80 93 ab 00 	sts	0x00AB, r24

	ret = Led_Turn_Off(&pedestriansRed);
    1346:	8a e9       	ldi	r24, 0x9A	; 154
    1348:	90 e0       	ldi	r25, 0x00	; 0
    134a:	0e 94 ff 06 	call	0xdfe	; 0xdfe <Led_Turn_Off>
    134e:	80 93 ab 00 	sts	0x00AB, r24
	ret = Led_Turn_Off(&pedestriansGrean);
    1352:	84 e9       	ldi	r24, 0x94	; 148
    1354:	90 e0       	ldi	r25, 0x00	; 0
    1356:	0e 94 ff 06 	call	0xdfe	; 0xdfe <Led_Turn_Off>
    135a:	80 93 ab 00 	sts	0x00AB, r24
	ret = Led_Turn_Off(&pedestriansYellow);
    135e:	87 e9       	ldi	r24, 0x97	; 151
    1360:	90 e0       	ldi	r25, 0x00	; 0
    1362:	0e 94 ff 06 	call	0xdfe	; 0xdfe <Led_Turn_Off>
    1366:	80 93 ab 00 	sts	0x00AB, r24
}
    136a:	cf 91       	pop	r28
    136c:	df 91       	pop	r29
    136e:	08 95       	ret

00001370 <carGreenLedOn>:
void carGreenLedOn()
{
    1370:	df 93       	push	r29
    1372:	cf 93       	push	r28
    1374:	cd b7       	in	r28, 0x3d	; 61
    1376:	de b7       	in	r29, 0x3e	; 62
	ret = Led_Turn_Off(&pedestriansYellow);
    1378:	87 e9       	ldi	r24, 0x97	; 151
    137a:	90 e0       	ldi	r25, 0x00	; 0
    137c:	0e 94 ff 06 	call	0xdfe	; 0xdfe <Led_Turn_Off>
    1380:	80 93 ab 00 	sts	0x00AB, r24
	ret = Led_Turn_Off(&carYellow);
    1384:	8d e9       	ldi	r24, 0x9D	; 157
    1386:	90 e0       	ldi	r25, 0x00	; 0
    1388:	0e 94 ff 06 	call	0xdfe	; 0xdfe <Led_Turn_Off>
    138c:	80 93 ab 00 	sts	0x00AB, r24

	//the pedestrian Red LED will be on
	ret = Led_Turn_On(&pedestriansRed);
    1390:	8a e9       	ldi	r24, 0x9A	; 154
    1392:	90 e0       	ldi	r25, 0x00	; 0
    1394:	0e 94 ce 06 	call	0xd9c	; 0xd9c <Led_Turn_On>
    1398:	80 93 ab 00 	sts	0x00AB, r24

	//then both Yellow LEDs start to blink for five seconds
	ret = Two_Led_Blink_aSecond(&carYellow, &pedestriansYellow);
    139c:	8d e9       	ldi	r24, 0x9D	; 157
    139e:	90 e0       	ldi	r25, 0x00	; 0
    13a0:	27 e9       	ldi	r18, 0x97	; 151
    13a2:	30 e0       	ldi	r19, 0x00	; 0
    13a4:	b9 01       	movw	r22, r18
    13a6:	0e 94 d3 07 	call	0xfa6	; 0xfa6 <Two_Led_Blink_aSecond>
    13aa:	80 93 ab 00 	sts	0x00AB, r24

	//then the cars' Red LED and pedestrian Green LEDs are on for five seconds
	ret = Led_Turn_Off(&carGrean);
    13ae:	86 eb       	ldi	r24, 0xB6	; 182
    13b0:	90 e0       	ldi	r25, 0x00	; 0
    13b2:	0e 94 ff 06 	call	0xdfe	; 0xdfe <Led_Turn_Off>
    13b6:	80 93 ab 00 	sts	0x00AB, r24
	ret = Led_Turn_Off(&pedestriansRed);
    13ba:	8a e9       	ldi	r24, 0x9A	; 154
    13bc:	90 e0       	ldi	r25, 0x00	; 0
    13be:	0e 94 ff 06 	call	0xdfe	; 0xdfe <Led_Turn_Off>
    13c2:	80 93 ab 00 	sts	0x00AB, r24

	ret = Led_Turn_On(&carRed);
    13c6:	80 ea       	ldi	r24, 0xA0	; 160
    13c8:	90 e0       	ldi	r25, 0x00	; 0
    13ca:	0e 94 ce 06 	call	0xd9c	; 0xd9c <Led_Turn_On>
    13ce:	80 93 ab 00 	sts	0x00AB, r24
	ret = Led_Turn_On(&pedestriansGrean);
    13d2:	84 e9       	ldi	r24, 0x94	; 148
    13d4:	90 e0       	ldi	r25, 0x00	; 0
    13d6:	0e 94 ce 06 	call	0xd9c	; 0xd9c <Led_Turn_On>
    13da:	80 93 ab 00 	sts	0x00AB, r24
	delay5s();
    13de:	0e 94 1d 02 	call	0x43a	; 0x43a <delay5s>
}
    13e2:	cf 91       	pop	r28
    13e4:	df 91       	pop	r29
    13e6:	08 95       	ret

000013e8 <carRedLedOn>:
void carRedLedOn()
{
    13e8:	df 93       	push	r29
    13ea:	cf 93       	push	r28
    13ec:	cd b7       	in	r28, 0x3d	; 61
    13ee:	de b7       	in	r29, 0x3e	; 62
	turnOffLeds();
    13f0:	0e 94 8d 09 	call	0x131a	; 0x131a <turnOffLeds>

	//the pedestrian's Green LED
	ret = Led_Turn_On(&pedestriansGrean);
    13f4:	84 e9       	ldi	r24, 0x94	; 148
    13f6:	90 e0       	ldi	r25, 0x00	; 0
    13f8:	0e 94 ce 06 	call	0xd9c	; 0xd9c <Led_Turn_On>
    13fc:	80 93 ab 00 	sts	0x00AB, r24

	//and the cars' Red LEDs will be on for five seconds
	ret = Led_Turn_On(&carRed);
    1400:	80 ea       	ldi	r24, 0xA0	; 160
    1402:	90 e0       	ldi	r25, 0x00	; 0
    1404:	0e 94 ce 06 	call	0xd9c	; 0xd9c <Led_Turn_On>
    1408:	80 93 ab 00 	sts	0x00AB, r24

	delay5s();
    140c:	0e 94 1d 02 	call	0x43a	; 0x43a <delay5s>
}
    1410:	cf 91       	pop	r28
    1412:	df 91       	pop	r29
    1414:	08 95       	ret

00001416 <main>:
#include "APP/app.h"




void main(void){
    1416:	df 93       	push	r29
    1418:	cf 93       	push	r28
    141a:	cd b7       	in	r28, 0x3d	; 61
    141c:	de b7       	in	r29, 0x3e	; 62

	while(1){
		appStart();
    141e:	0e 94 b3 08 	call	0x1166	; 0x1166 <appStart>
    1422:	fd cf       	rjmp	.-6      	; 0x141e <main+0x8>

00001424 <__udivmodhi4>:
    1424:	aa 1b       	sub	r26, r26
    1426:	bb 1b       	sub	r27, r27
    1428:	51 e1       	ldi	r21, 0x11	; 17
    142a:	07 c0       	rjmp	.+14     	; 0x143a <__udivmodhi4_ep>

0000142c <__udivmodhi4_loop>:
    142c:	aa 1f       	adc	r26, r26
    142e:	bb 1f       	adc	r27, r27
    1430:	a6 17       	cp	r26, r22
    1432:	b7 07       	cpc	r27, r23
    1434:	10 f0       	brcs	.+4      	; 0x143a <__udivmodhi4_ep>
    1436:	a6 1b       	sub	r26, r22
    1438:	b7 0b       	sbc	r27, r23

0000143a <__udivmodhi4_ep>:
    143a:	88 1f       	adc	r24, r24
    143c:	99 1f       	adc	r25, r25
    143e:	5a 95       	dec	r21
    1440:	a9 f7       	brne	.-22     	; 0x142c <__udivmodhi4_loop>
    1442:	80 95       	com	r24
    1444:	90 95       	com	r25
    1446:	bc 01       	movw	r22, r24
    1448:	cd 01       	movw	r24, r26
    144a:	08 95       	ret

0000144c <_exit>:
    144c:	f8 94       	cli

0000144e <__stop_program>:
    144e:	ff cf       	rjmp	.-2      	; 0x144e <__stop_program>
